(lp0
(lp1
S'blue'
p2
a(I442
I81
tp3
aF0.0
aa(lp4
S'green'
p5
a(I302
I300
tp6
aF0.0
aa(lp7
S'red'
p8
a(I14
I25
tp9
aF0.0
aa(lp10
g8
a(I14
I25
tp11
aF0.0
aa(lp12
g2
a(I442
I81
tp13
aF0.04
aa(lp14
g5
a(I301
I300
tp15
aF0.04
aa(lp16
g8
a(I11
I37
tp17
aF0.04
aa(lp18
g8
a(I11
I37
tp19
aF0.04
aa(lp20
g8
a(I11
I37
tp21
aF0.04
aa(lp22
g2
a(I442
I81
tp23
aF0.08
aa(lp24
g5
a(I299
I301
tp25
aF0.08
aa(lp26
g8
a(I275
I87
tp27
aF0.08
aa(lp28
g8
a(I275
I87
tp29
aF0.08
aa(lp30
g8
a(I275
I87
tp31
aF0.08
aa(lp32
g8
a(I275
I87
tp33
aF0.08
aa(lp34
g2
a(I442
I81
tp35
aF0.12
aa(lp36
g5
a(I297
I301
tp37
aF0.12
aa(lp38
g8
a(I276
I87
tp39
aF0.12
aa(lp40
g2
a(I443
I81
tp41
aF0.16
aa(lp42
g5
a(I293
I301
tp43
aF0.16
aa(lp44
g8
a(I277
I87
tp45
aF0.16
aa(lp46
g2
a(I444
I81
tp47
aF0.2
aa(lp48
g5
a(I289
I302
tp49
aF0.2
aa(lp50
g8
a(I277
I87
tp51
aF0.2
aa(lp52
g2
a(I444
I81
tp53
aF0.24
aa(lp54
g5
a(I286
I302
tp55
aF0.24
aa(lp56
g8
a(I278
I87
tp57
aF0.24
aa(lp58
g2
a(I445
I81
tp59
aF0.28
aa(lp60
g5
a(I280
I302
tp61
aF0.28
aa(lp62
g8
a(I278
I87
tp63
aF0.28
aa(lp64
g2
a(I446
I81
tp65
aF0.32
aa(lp66
g5
a(I277
I302
tp67
aF0.32
aa(lp68
g8
a(I279
I87
tp69
aF0.32
aa(lp70
g2
a(I446
I81
tp71
aF0.36
aa(lp72
g5
a(I272
I302
tp73
aF0.36
aa(lp74
g8
a(I280
I87
tp75
aF0.36
aa(lp76
g2
a(I447
I81
tp77
aF0.4
aa(lp78
g5
a(I269
I302
tp79
aF0.4
aa(lp80
g8
a(I280
I87
tp81
aF0.4
aa(lp82
g2
a(I447
I81
tp83
aF0.44
aa(lp84
g5
a(I267
I302
tp85
aF0.44
aa(lp86
g8
a(I281
I87
tp87
aF0.44
aa(lp88
g2
a(I448
I81
tp89
aF0.48
aa(lp90
g5
a(I265
I303
tp91
aF0.48
aa(lp92
g8
a(I281
I87
tp93
aF0.48
aa(lp94
g8
a(I281
I87
tp95
aF0.48
aa(lp96
g2
a(I448
I81
tp97
aF0.52
aa(lp98
g5
a(I265
I302
tp99
aF0.52
aa(lp100
g8
a(I282
I87
tp101
aF0.52
aa(lp102
g8
a(I282
I87
tp103
aF0.52
aa(lp104
g2
a(I449
I81
tp105
aF0.56
aa(lp106
g5
a(I266
I302
tp107
aF0.56
aa(lp108
g8
a(I282
I87
tp109
aF0.56
aa(lp110
g8
a(I282
I87
tp111
aF0.56
aa(lp112
g8
a(I282
I87
tp113
aF0.56
aa(lp114
S'yellow'
p115
a(I429
I299
tp116
aF0.56
aa(lp117
g2
a(I449
I81
tp118
aF0.6
aa(lp119
g5
a(I267
I303
tp120
aF0.6
aa(lp121
g8
a(I16
I217
tp122
aF0.6
aa(lp123
g8
a(I16
I217
tp124
aF0.6
aa(lp125
g115
a(I429
I299
tp126
aF0.6
aa(lp127
g2
a(I449
I81
tp128
aF0.64
aa(lp129
g5
a(I270
I303
tp130
aF0.64
aa(lp131
g8
a(I282
I87
tp132
aF0.64
aa(lp133
g8
a(I282
I87
tp134
aF0.64
aa(lp135
g8
a(I282
I87
tp136
aF0.64
aa(lp137
g115
a(I430
I299
tp138
aF0.64
aa(lp139
g2
a(I449
I81
tp140
aF0.68
aa(lp141
g5
a(I274
I303
tp142
aF0.68
aa(lp143
g8
a(I9
I199
tp144
aF0.68
aa(lp145
g8
a(I9
I199
tp146
aF0.68
aa(lp147
g115
a(I432
I300
tp148
aF0.68
aa(lp149
g2
a(I449
I81
tp150
aF0.72
aa(lp151
g5
a(I278
I303
tp152
aF0.72
aa(lp153
g8
a(I7
I190
tp154
aF0.72
aa(lp155
g8
a(I7
I190
tp156
aF0.72
aa(lp157
g115
a(I435
I300
tp158
aF0.72
aa(lp159
g2
a(I448
I81
tp160
aF0.76
aa(lp161
g5
a(I284
I303
tp162
aF0.76
aa(lp163
g8
a(I282
I87
tp164
aF0.76
aa(lp165
g8
a(I282
I87
tp166
aF0.76
aa(lp167
g115
a(I440
I300
tp168
aF0.76
aa(lp169
g2
a(I448
I81
tp170
aF0.8
aa(lp171
g5
a(I288
I303
tp172
aF0.8
aa(lp173
g8
a(I282
I87
tp174
aF0.8
aa(lp175
g115
a(I445
I301
tp176
aF0.8
aa(lp177
g2
a(I448
I81
tp178
aF0.84
aa(lp179
g5
a(I292
I303
tp180
aF0.84
aa(lp181
g8
a(I281
I87
tp182
aF0.84
aa(lp183
g115
a(I449
I301
tp184
aF0.84
aa(lp185
g2
a(I448
I81
tp186
aF0.88
aa(lp187
g5
a(I298
I302
tp188
aF0.88
aa(lp189
g8
a(I281
I87
tp190
aF0.88
aa(lp191
g115
a(I456
I301
tp192
aF0.88
aa(lp193
g2
a(I448
I81
tp194
aF0.92
aa(lp195
g5
a(I301
I302
tp196
aF0.92
aa(lp197
g8
a(I281
I87
tp198
aF0.92
aa(lp199
g115
a(I460
I300
tp200
aF0.92
aa(lp201
g2
a(I448
I81
tp202
aF0.96
aa(lp203
g5
a(I305
I301
tp204
aF0.96
aa(lp205
g8
a(I281
I87
tp206
aF0.96
aa(lp207
g115
a(I466
I300
tp208
aF0.96
aa(lp209
g2
a(I448
I81
tp210
aF1.0
aa(lp211
g5
a(I307
I301
tp212
aF1.0
aa(lp213
g8
a(I281
I87
tp214
aF1.0
aa(lp215
g115
a(I469
I299
tp216
aF1.0
aa(lp217
g2
a(I448
I81
tp218
aF1.04
aa(lp219
g5
a(I308
I301
tp220
aF1.04
aa(lp221
g8
a(I281
I87
tp222
aF1.04
aa(lp223
g115
a(I472
I299
tp224
aF1.04
aa(lp225
g2
a(I449
I81
tp226
aF1.08
aa(lp227
g5
a(I309
I300
tp228
aF1.08
aa(lp229
g8
a(I282
I87
tp230
aF1.08
aa(lp231
g115
a(I475
I299
tp232
aF1.08
aa(lp233
g2
a(I449
I81
tp234
aF1.12
aa(lp235
g5
a(I308
I300
tp236
aF1.12
aa(lp237
g8
a(I282
I87
tp238
aF1.12
aa(lp239
g115
a(I476
I298
tp240
aF1.12
aa(lp241
g2
a(I449
I81
tp242
aF1.16
aa(lp243
g5
a(I306
I301
tp244
aF1.16
aa(lp245
g8
a(I283
I87
tp246
aF1.16
aa(lp247
g115
a(I476
I298
tp248
aF1.16
aa(lp249
g2
a(I450
I81
tp250
aF1.2
aa(lp251
g5
a(I304
I301
tp252
aF1.2
aa(lp253
g8
a(I283
I87
tp254
aF1.2
aa(lp255
g115
a(I476
I299
tp256
aF1.2
aa(lp257
g2
a(I450
I81
tp258
aF1.24
aa(lp259
g5
a(I301
I301
tp260
aF1.24
aa(lp261
g8
a(I283
I87
tp262
aF1.24
aa(lp263
g115
a(I474
I299
tp264
aF1.24
aa(lp265
g2
a(I451
I81
tp266
aF1.28
aa(lp267
g5
a(I296
I301
tp268
aF1.28
aa(lp269
g8
a(I284
I87
tp270
aF1.28
aa(lp271
g115
a(I471
I299
tp272
aF1.28
aa(lp273
g2
a(I451
I81
tp274
aF1.32
aa(lp275
g5
a(I293
I302
tp276
aF1.32
aa(lp277
g8
a(I285
I87
tp278
aF1.32
aa(lp279
g115
a(I468
I299
tp280
aF1.32
aa(lp281
g2
a(I452
I81
tp282
aF1.36
aa(lp283
g5
a(I287
I302
tp284
aF1.36
aa(lp285
g8
a(I286
I87
tp286
aF1.36
aa(lp287
g115
a(I462
I300
tp288
aF1.36
aa(lp289
g2
a(I453
I81
tp290
aF1.4
aa(lp291
g5
a(I284
I302
tp292
aF1.4
aa(lp293
g8
a(I286
I87
tp294
aF1.4
aa(lp295
g115
a(I459
I300
tp296
aF1.4
aa(lp297
g2
a(I453
I81
tp298
aF1.44
aa(lp299
g5
a(I280
I302
tp300
aF1.44
aa(lp301
g8
a(I287
I87
tp302
aF1.44
aa(lp303
g115
a(I455
I300
tp304
aF1.44
aa(lp305
g2
a(I454
I81
tp306
aF1.48
aa(lp307
g5
a(I277
I302
tp308
aF1.48
aa(lp309
g8
a(I287
I87
tp310
aF1.48
aa(lp311
g115
a(I450
I300
tp312
aF1.48
aa(lp313
g2
a(I455
I81
tp314
aF1.52
aa(lp315
g5
a(I274
I302
tp316
aF1.52
aa(lp317
g8
a(I288
I87
tp318
aF1.52
aa(lp319
g115
a(I446
I300
tp320
aF1.52
aa(lp321
g2
a(I455
I81
tp322
aF1.56
aa(lp323
g5
a(I273
I302
tp324
aF1.56
aa(lp325
g8
a(I289
I87
tp326
aF1.56
aa(lp327
g115
a(I442
I300
tp328
aF1.56
aa(lp329
g2
a(I455
I81
tp330
aF1.6
aa(lp331
g5
a(I272
I302
tp332
aF1.6
aa(lp333
g8
a(I289
I87
tp334
aF1.6
aa(lp335
g115
a(I440
I300
tp336
aF1.6
aa(lp337
g2
a(I456
I81
tp338
aF1.64
aa(lp339
g5
a(I273
I302
tp340
aF1.64
aa(lp341
g8
a(I289
I87
tp342
aF1.64
aa(lp343
g115
a(I439
I300
tp344
aF1.64
aa(lp345
g2
a(I456
I81
tp346
aF1.68
aa(lp347
g5
a(I275
I303
tp348
aF1.68
aa(lp349
g8
a(I289
I87
tp350
aF1.68
aa(lp351
g115
a(I439
I299
tp352
aF1.68
aa(lp353
g2
a(I456
I81
tp354
aF1.72
aa(lp355
g5
a(I277
I303
tp356
aF1.72
aa(lp357
g8
a(I289
I87
tp358
aF1.72
aa(lp359
g115
a(I439
I300
tp360
aF1.72
aa(lp361
g2
a(I455
I81
tp362
aF1.76
aa(lp363
g5
a(I281
I303
tp364
aF1.76
aa(lp365
g8
a(I288
I87
tp366
aF1.76
aa(lp367
g115
a(I441
I300
tp368
aF1.76
aa(lp369
g2
a(I455
I81
tp370
aF1.8
aa(lp371
g5
a(I285
I303
tp372
aF1.8
aa(lp373
g8
a(I288
I87
tp374
aF1.8
aa(lp375
g115
a(I444
I300
tp376
aF1.8
aa(lp377
g2
a(I455
I81
tp378
aF1.84
aa(lp379
g5
a(I289
I303
tp380
aF1.84
aa(lp381
g8
a(I288
I87
tp382
aF1.84
aa(lp383
g115
a(I447
I300
tp384
aF1.84
aa(lp385
g2
a(I455
I81
tp386
aF1.88
aa(lp387
g5
a(I295
I303
tp388
aF1.88
aa(lp389
g8
a(I288
I87
tp390
aF1.88
aa(lp391
g115
a(I451
I301
tp392
aF1.88
aa(lp393
g2
a(I454
I81
tp394
aF1.92
aa(lp395
g5
a(I299
I303
tp396
aF1.92
aa(lp397
g8
a(I288
I87
tp398
aF1.92
aa(lp399
g115
a(I455
I300
tp400
aF1.92
aa(lp401
g2
a(I454
I81
tp402
aF1.96
aa(lp403
g5
a(I304
I302
tp404
aF1.96
aa(lp405
g8
a(I287
I87
tp406
aF1.96
aa(lp407
g115
a(I461
I301
tp408
aF1.96
aa(lp409
g2
a(I454
I81
tp410
aF2.0
aa(lp411
g5
a(I307
I302
tp412
aF2.0
aa(lp413
g8
a(I287
I87
tp414
aF2.0
aa(lp415
g115
a(I464
I300
tp416
aF2.0
aa(lp417
g2
a(I454
I81
tp418
aF2.04
aa(lp419
g5
a(I310
I302
tp420
aF2.04
aa(lp421
g8
a(I287
I87
tp422
aF2.04
aa(lp423
g115
a(I468
I300
tp424
aF2.04
aa(lp425
g2
a(I454
I81
tp426
aF2.08
aa(lp427
g5
a(I313
I301
tp428
aF2.08
aa(lp429
g8
a(I287
I87
tp430
aF2.08
aa(lp431
g115
a(I472
I300
tp432
aF2.08
aa(lp433
g2
a(I454
I81
tp434
aF2.12
aa(lp435
g5
a(I314
I301
tp436
aF2.12
aa(lp437
g8
a(I287
I87
tp438
aF2.12
aa(lp439
g115
a(I475
I299
tp440
aF2.12
aa(lp441
g2
a(I454
I81
tp442
aF2.16
aa(lp443
g5
a(I314
I301
tp444
aF2.16
aa(lp445
g8
a(I287
I87
tp446
aF2.16
aa(lp447
g115
a(I477
I299
tp448
aF2.16
aa(lp449
g2
a(I455
I81
tp450
aF2.2
aa(lp451
g5
a(I313
I300
tp452
aF2.2
aa(lp453
g8
a(I288
I87
tp454
aF2.2
aa(lp455
g115
a(I478
I299
tp456
aF2.2
aa(lp457
g2
a(I455
I81
tp458
aF2.24
aa(lp459
g5
a(I312
I301
tp460
aF2.24
aa(lp461
g8
a(I288
I87
tp462
aF2.24
aa(lp463
g115
a(I479
I299
tp464
aF2.24
aa(lp465
g2
a(I455
I81
tp466
aF2.28
aa(lp467
g5
a(I308
I301
tp468
aF2.28
aa(lp469
g8
a(I288
I87
tp470
aF2.28
aa(lp471
g115
a(I478
I299
tp472
aF2.28
aa(lp473
g2
a(I456
I81
tp474
aF2.32
aa(lp475
g5
a(I306
I301
tp476
aF2.32
aa(lp477
g8
a(I289
I87
tp478
aF2.32
aa(lp479
g115
a(I477
I299
tp480
aF2.32
aa(lp481
g2
a(I456
I81
tp482
aF2.36
aa(lp483
g5
a(I300
I301
tp484
aF2.36
aa(lp485
g8
a(I289
I87
tp486
aF2.36
aa(lp487
g115
a(I474
I299
tp488
aF2.36
aa(lp489
g2
a(I457
I81
tp490
aF2.4
aa(lp491
g5
a(I297
I301
tp492
aF2.4
aa(lp493
g8
a(I290
I87
tp494
aF2.4
aa(lp495
g115
a(I472
I299
tp496
aF2.4
aa(lp497
g2
a(I457
I81
tp498
aF2.44
aa(lp499
g5
a(I293
I301
tp500
aF2.44
aa(lp501
g8
a(I290
I87
tp502
aF2.44
aa(lp503
g115
a(I469
I299
tp504
aF2.44
aa(lp505
g2
a(I458
I81
tp506
aF2.48
aa(lp507
g5
a(I288
I302
tp508
aF2.48
aa(lp509
g8
a(I291
I87
tp510
aF2.48
aa(lp511
g115
a(I464
I300
tp512
aF2.48
aa(lp513
g2
a(I458
I81
tp514
aF2.52
aa(lp515
g5
a(I285
I302
tp516
aF2.52
aa(lp517
g8
a(I292
I87
tp518
aF2.52
aa(lp519
g115
a(I460
I300
tp520
aF2.52
aa(lp521
g2
a(I459
I81
tp522
aF2.56
aa(lp523
g5
a(I281
I302
tp524
aF2.56
aa(lp525
g8
a(I292
I87
tp526
aF2.56
aa(lp527
g115
a(I456
I300
tp528
aF2.56
aa(lp529
g2
a(I459
I81
tp530
aF2.6
aa(lp531
g5
a(I279
I302
tp532
aF2.6
aa(lp533
g8
a(I292
I87
tp534
aF2.6
aa(lp535
g115
a(I453
I300
tp536
aF2.6
aa(lp537
g2
a(I460
I81
tp538
aF2.64
aa(lp539
g5
a(I278
I302
tp540
aF2.64
aa(lp541
g8
a(I293
I87
tp542
aF2.64
aa(lp543
g115
a(I451
I300
tp544
aF2.64
aa(lp545
g2
a(I460
I81
tp546
aF2.68
aa(lp547
g5
a(I277
I302
tp548
aF2.68
aa(lp549
g8
a(I293
I86
tp550
aF2.68
aa(lp551
g115
a(I448
I300
tp552
aF2.68
aa(lp553
g2
a(I460
I81
tp554
aF2.72
aa(lp555
g5
a(I278
I302
tp556
aF2.72
aa(lp557
g8
a(I293
I87
tp558
aF2.72
aa(lp559
g115
a(I447
I300
tp560
aF2.72
aa(lp561
g2
a(I460
I81
tp562
aF2.76
aa(lp563
g5
a(I279
I303
tp564
aF2.76
aa(lp565
g8
a(I293
I86
tp566
aF2.76
aa(lp567
g115
a(I446
I300
tp568
aF2.76
aa(lp569
g2
a(I460
I81
tp570
aF2.8
aa(lp571
g5
a(I281
I303
tp572
aF2.8
aa(lp573
g8
a(I293
I87
tp574
aF2.8
aa(lp575
g115
a(I447
I300
tp576
aF2.8
aa(lp577
g2
a(I460
I81
tp578
aF2.84
aa(lp579
g5
a(I284
I303
tp580
aF2.84
aa(lp581
g8
a(I293
I86
tp582
aF2.84
aa(lp583
g115
a(I448
I300
tp584
aF2.84
aa(lp585
g2
a(I460
I81
tp586
aF2.88
aa(lp587
g5
a(I289
I303
tp588
aF2.88
aa(lp589
g8
a(I293
I86
tp590
aF2.88
aa(lp591
g115
a(I450
I300
tp592
aF2.88
aa(lp593
g2
a(I460
I81
tp594
aF2.92
aa(lp595
g5
a(I293
I303
tp596
aF2.92
aa(lp597
g8
a(I293
I87
tp598
aF2.92
aa(lp599
g115
a(I452
I300
tp600
aF2.92
aa(lp601
g2
a(I460
I81
tp602
aF2.96
aa(lp603
g5
a(I299
I303
tp604
aF2.96
aa(lp605
g8
a(I293
I86
tp606
aF2.96
aa(lp607
g115
a(I456
I300
tp608
aF2.96
aa(lp609
g2
a(I460
I81
tp610
aF3.0
aa(lp611
g5
a(I303
I303
tp612
aF3.0
aa(lp613
g8
a(I293
I86
tp614
aF3.0
aa(lp615
g115
a(I460
I300
tp616
aF3.0
aa(lp617
g2
a(I460
I81
tp618
aF3.04
aa(lp619
g5
a(I307
I303
tp620
aF3.04
aa(lp621
g8
a(I293
I86
tp622
aF3.04
aa(lp623
g115
a(I463
I300
tp624
aF3.04
aa(lp625
g2
a(I460
I81
tp626
aF3.08
aa(lp627
g5
a(I312
I302
tp628
aF3.08
aa(lp629
g8
a(I293
I86
tp630
aF3.08
aa(lp631
g115
a(I468
I300
tp632
aF3.08
aa(lp633
g2
a(I460
I81
tp634
aF3.12
aa(lp635
g5
a(I315
I302
tp636
aF3.12
aa(lp637
g8
a(I293
I86
tp638
aF3.12
aa(lp639
g115
a(I471
I300
tp640
aF3.12
aa(lp641
g2
a(I461
I81
tp642
aF3.16
aa(lp643
g5
a(I318
I301
tp644
aF3.16
aa(lp645
g8
a(I293
I86
tp646
aF3.16
aa(lp647
g115
a(I476
I300
tp648
aF3.16
aa(lp649
g2
a(I461
I81
tp650
aF3.2
aa(lp651
g5
a(I320
I301
tp652
aF3.2
aa(lp653
g8
a(I294
I87
tp654
aF3.2
aa(lp655
g115
a(I478
I300
tp656
aF3.2
aa(lp657
g2
a(I461
I81
tp658
aF3.24
aa(lp659
g5
a(I320
I301
tp660
aF3.24
aa(lp661
g8
a(I294
I87
tp662
aF3.24
aa(lp663
g115
a(I480
I299
tp664
aF3.24
aa(lp665
g2
a(I461
I81
tp666
aF3.28
aa(lp667
g5
a(I320
I301
tp668
aF3.28
aa(lp669
g8
a(I294
I87
tp670
aF3.28
aa(lp671
g115
a(I482
I299
tp672
aF3.28
aa(lp673
g2
a(I461
I81
tp674
aF3.32
aa(lp675
g5
a(I319
I301
tp676
aF3.32
aa(lp677
g8
a(I294
I86
tp678
aF3.32
aa(lp679
g115
a(I483
I299
tp680
aF3.32
aa(lp681
g2
a(I462
I81
tp682
aF3.36
aa(lp683
g5
a(I316
I301
tp684
aF3.36
aa(lp685
g8
a(I294
I86
tp686
aF3.36
aa(lp687
g115
a(I483
I299
tp688
aF3.36
aa(lp689
g2
a(I462
I81
tp690
aF3.4
aa(lp691
g5
a(I313
I301
tp692
aF3.4
aa(lp693
g8
a(I295
I86
tp694
aF3.4
aa(lp695
g115
a(I482
I299
tp696
aF3.4
aa(lp697
g2
a(I462
I81
tp698
aF3.44
aa(lp699
g5
a(I310
I301
tp700
aF3.44
aa(lp701
g8
a(I295
I86
tp702
aF3.44
aa(lp703
g115
a(I481
I299
tp704
aF3.44
aa(lp705
g2
a(I463
I81
tp706
aF3.48
aa(lp707
g5
a(I305
I301
tp708
aF3.48
aa(lp709
g8
a(I296
I86
tp710
aF3.48
aa(lp711
g115
a(I478
I299
tp712
aF3.48
aa(lp713
g2
a(I463
I81
tp714
aF3.52
aa(lp715
g5
a(I302
I302
tp716
aF3.52
aa(lp717
g8
a(I296
I86
tp718
aF3.52
aa(lp719
g115
a(I476
I300
tp720
aF3.52
aa(lp721
g2
a(I464
I81
tp722
aF3.56
aa(lp723
g5
a(I298
I302
tp724
aF3.56
aa(lp725
g8
a(I297
I86
tp726
aF3.56
aa(lp727
g115
a(I473
I300
tp728
aF3.56
aa(lp729
g2
a(I464
I80
tp730
aF3.6
aa(lp731
g5
a(I293
I302
tp732
aF3.6
aa(lp733
g8
a(I297
I86
tp734
aF3.6
aa(lp735
g115
a(I469
I300
tp736
aF3.6
aa(lp737
g2
a(I465
I81
tp738
aF3.64
aa(lp739
g5
a(I290
I302
tp740
aF3.64
aa(lp741
g8
a(I298
I86
tp742
aF3.64
aa(lp743
g115
a(I466
I300
tp744
aF3.64
aa(lp745
g2
a(I465
I80
tp746
aF3.68
aa(lp747
g5
a(I286
I302
tp748
aF3.68
aa(lp749
g8
a(I298
I86
tp750
aF3.68
aa(lp751
g115
a(I462
I300
tp752
aF3.68
aa(lp753
g2
a(I466
I81
tp754
aF3.72
aa(lp755
g5
a(I284
I302
tp756
aF3.72
aa(lp757
g8
a(I299
I86
tp758
aF3.72
aa(lp759
g115
a(I460
I300
tp760
aF3.72
aa(lp761
g2
a(I466
I81
tp762
aF3.76
aa(lp763
g5
a(I283
I302
tp764
aF3.76
aa(lp765
g8
a(I299
I86
tp766
aF3.76
aa(lp767
g115
a(I458
I300
tp768
aF3.76
aa(lp769
g2
a(I466
I81
tp770
aF3.8
aa(lp771
g5
a(I284
I302
tp772
aF3.8
aa(lp773
g8
a(I299
I86
tp774
aF3.8
aa(lp775
g115
a(I456
I300
tp776
aF3.8
aa(lp777
g2
a(I466
I80
tp778
aF3.84
aa(lp779
g5
a(I284
I302
tp780
aF3.84
aa(lp781
g8
a(I299
I86
tp782
aF3.84
aa(lp783
g115
a(I455
I300
tp784
aF3.84
aa(lp785
g2
a(I466
I80
tp786
aF3.88
aa(lp787
g5
a(I287
I303
tp788
aF3.88
aa(lp789
g8
a(I299
I86
tp790
aF3.88
aa(lp791
g115
a(I455
I300
tp792
aF3.88
aa(lp793
g2
a(I466
I80
tp794
aF3.92
aa(lp795
g5
a(I289
I303
tp796
aF3.92
aa(lp797
g8
a(I300
I86
tp798
aF3.92
aa(lp799
g115
a(I456
I300
tp800
aF3.92
aa(lp801
g2
a(I466
I80
tp802
aF3.96
aa(lp803
g5
a(I292
I303
tp804
aF3.96
aa(lp805
g8
a(I300
I86
tp806
aF3.96
aa(lp807
g115
a(I457
I300
tp808
aF3.96
aa(lp809
g2
a(I466
I81
tp810
aF4.0
aa(lp811
g5
a(I298
I303
tp812
aF4.0
aa(lp813
g8
a(I299
I86
tp814
aF4.0
aa(lp815
g115
a(I459
I300
tp816
aF4.0
aa(lp817
g2
a(I466
I81
tp818
aF4.04
aa(lp819
g5
a(I301
I303
tp820
aF4.04
aa(lp821
g8
a(I299
I86
tp822
aF4.04
aa(lp823
g115
a(I461
I300
tp824
aF4.04
aa(lp825
g2
a(I466
I81
tp826
aF4.08
aa(lp827
g5
a(I307
I303
tp828
aF4.08
aa(lp829
g8
a(I299
I86
tp830
aF4.08
aa(lp831
g115
a(I465
I300
tp832
aF4.08
aa(lp833
g2
a(I466
I81
tp834
aF4.12
aa(lp835
g5
a(I311
I303
tp836
aF4.12
aa(lp837
g8
a(I299
I86
tp838
aF4.12
aa(lp839
g115
a(I468
I300
tp840
aF4.12
aa(lp841
g2
a(I466
I81
tp842
aF4.16
aa(lp843
g5
a(I315
I303
tp844
aF4.16
aa(lp845
g8
a(I299
I86
tp846
aF4.16
aa(lp847
g115
a(I471
I300
tp848
aF4.16
aa(lp849
g2
a(I466
I81
tp850
aF4.2
aa(lp851
g5
a(I320
I302
tp852
aF4.2
aa(lp853
g8
a(I299
I86
tp854
aF4.2
aa(lp855
g115
a(I475
I300
tp856
aF4.2
aa(lp857
g2
a(I466
I81
tp858
aF4.24
aa(lp859
g5
a(I322
I302
tp860
aF4.24
aa(lp861
g8
a(I299
I86
tp862
aF4.24
aa(lp863
g115
a(I478
I300
tp864
aF4.24
aa(lp865
g2
a(I467
I81
tp866
aF4.28
aa(lp867
g5
a(I324
I301
tp868
aF4.28
aa(lp869
g8
a(I299
I86
tp870
aF4.28
aa(lp871
g115
a(I481
I300
tp872
aF4.28
aa(lp873
g2
a(I467
I81
tp874
aF4.32
aa(lp875
g5
a(I325
I301
tp876
aF4.32
aa(lp877
g8
a(I300
I86
tp878
aF4.32
aa(lp879
g115
a(I483
I300
tp880
aF4.32
aa(lp881
g2
a(I467
I81
tp882
aF4.36
aa(lp883
g5
a(I326
I301
tp884
aF4.36
aa(lp885
g8
a(I300
I86
tp886
aF4.36
aa(lp887
g115
a(I485
I300
tp888
aF4.36
aa(lp889
g2
a(I467
I81
tp890
aF4.4
aa(lp891
g5
a(I324
I301
tp892
aF4.4
aa(lp893
g8
a(I300
I86
tp894
aF4.4
aa(lp895
g115
a(I486
I299
tp896
aF4.4
aa(lp897
g2
a(I468
I81
tp898
aF4.44
aa(lp899
g5
a(I323
I301
tp900
aF4.44
aa(lp901
g8
a(I300
I86
tp902
aF4.44
aa(lp903
g115
a(I486
I299
tp904
aF4.44
aa(lp905
g2
a(I468
I81
tp906
aF4.48
aa(lp907
g5
a(I320
I301
tp908
aF4.48
aa(lp909
g8
a(I301
I86
tp910
aF4.48
aa(lp911
g115
a(I486
I299
tp912
aF4.48
aa(lp913
g2
a(I469
I81
tp914
aF4.52
aa(lp915
g5
a(I317
I301
tp916
aF4.52
aa(lp917
g8
a(I302
I86
tp918
aF4.52
aa(lp919
g115
a(I485
I299
tp920
aF4.52
aa(lp921
g2
a(I469
I81
tp922
aF4.56
aa(lp923
g5
a(I314
I301
tp924
aF4.56
aa(lp925
g8
a(I302
I86
tp926
aF4.56
aa(lp927
g115
a(I484
I299
tp928
aF4.56
aa(lp929
g2
a(I470
I81
tp930
aF4.6
aa(lp931
g5
a(I309
I301
tp932
aF4.6
aa(lp933
g8
a(I303
I86
tp934
aF4.6
aa(lp935
g115
a(I482
I300
tp936
aF4.6
aa(lp937
g2
a(I470
I80
tp938
aF4.64
aa(lp939
g5
a(I305
I302
tp940
aF4.64
aa(lp941
g8
a(I304
I86
tp942
aF4.64
aa(lp943
g115
a(I480
I300
tp944
aF4.64
aa(lp945
g2
a(I471
I81
tp946
aF4.68
aa(lp947
g5
a(I300
I302
tp948
aF4.68
aa(lp949
g8
a(I304
I86
tp950
aF4.68
aa(lp951
g115
a(I477
I300
tp952
aF4.68
aa(lp953
g2
a(I472
I81
tp954
aF4.72
aa(lp955
g5
a(I298
I302
tp956
aF4.72
aa(lp957
g8
a(I305
I86
tp958
aF4.72
aa(lp959
g115
a(I475
I300
tp960
aF4.72
aa(lp961
g2
a(I472
I80
tp962
aF4.76
aa(lp963
g5
a(I295
I301
tp964
aF4.76
aa(lp965
g8
a(I305
I86
tp966
aF4.76
aa(lp967
g115
a(I473
I300
tp968
aF4.76
aa(lp969
g2
a(I473
I81
tp970
aF4.8
aa(lp971
g5
a(I292
I302
tp972
aF4.8
aa(lp973
g8
a(I306
I86
tp974
aF4.8
aa(lp975
g115
a(I470
I300
tp976
aF4.8
aa(lp977
g2
a(I473
I81
tp978
aF4.84
aa(lp979
g5
a(I291
I302
tp980
aF4.84
aa(lp981
g8
a(I306
I86
tp982
aF4.84
aa(lp983
g115
a(I468
I300
tp984
aF4.84
aa(lp985
g2
a(I474
I80
tp986
aF4.88
aa(lp987
g5
a(I291
I302
tp988
aF4.88
aa(lp989
g8
a(I306
I86
tp990
aF4.88
aa(lp991
g115
a(I466
I300
tp992
aF4.88
aa(lp993
g2
a(I474
I81
tp994
aF4.92
aa(lp995
g5
a(I292
I302
tp996
aF4.92
aa(lp997
g8
a(I307
I86
tp998
aF4.92
aa(lp999
g115
a(I466
I300
tp1000
aF4.92
aa(lp1001
g2
a(I474
I81
tp1002
aF4.96
aa(lp1003
g5
a(I293
I302
tp1004
aF4.96
aa(lp1005
g8
a(I307
I86
tp1006
aF4.96
aa(lp1007
g115
a(I466
I300
tp1008
aF4.96
aa(lp1009
g2
a(I474
I81
tp1010
aF5.0
aa(lp1011
g5
a(I297
I303
tp1012
aF5.0
aa(lp1013
g8
a(I307
I86
tp1014
aF5.0
aa(lp1015
g115
a(I466
I300
tp1016
aF5.0
aa(lp1017
g2
a(I474
I81
tp1018
aF5.04
aa(lp1019
g5
a(I299
I303
tp1020
aF5.04
aa(lp1021
g8
a(I307
I86
tp1022
aF5.04
aa(lp1023
g115
a(I467
I300
tp1024
aF5.04
aa(lp1025
g2
a(I474
I81
tp1026
aF5.08
aa(lp1027
g5
a(I304
I303
tp1028
aF5.08
aa(lp1029
g8
a(I307
I86
tp1030
aF5.08
aa(lp1031
g115
a(I469
I300
tp1032
aF5.08
aa(lp1033
g2
a(I474
I81
tp1034
aF5.12
aa(lp1035
g5
a(I308
I303
tp1036
aF5.12
aa(lp1037
g8
a(I307
I86
tp1038
aF5.12
aa(lp1039
g115
a(I471
I300
tp1040
aF5.12
aa(lp1041
g2
a(I474
I81
tp1042
aF5.16
aa(lp1043
g5
a(I312
I303
tp1044
aF5.16
aa(lp1045
g8
a(I307
I86
tp1046
aF5.16
aa(lp1047
g115
a(I473
I300
tp1048
aF5.16
aa(lp1049
g2
a(I474
I81
tp1050
aF5.2
aa(lp1051
g5
a(I318
I303
tp1052
aF5.2
aa(lp1053
g8
a(I307
I86
tp1054
aF5.2
aa(lp1055
g115
a(I476
I300
tp1056
aF5.2
aa(lp1057
g2
a(I474
I81
tp1058
aF5.24
aa(lp1059
g5
a(I322
I303
tp1060
aF5.24
aa(lp1061
g8
a(I307
I86
tp1062
aF5.24
aa(lp1063
g115
a(I479
I300
tp1064
aF5.24
aa(lp1065
g2
a(I474
I81
tp1066
aF5.28
aa(lp1067
g5
a(I326
I302
tp1068
aF5.28
aa(lp1069
g8
a(I307
I86
tp1070
aF5.28
aa(lp1071
g115
a(I482
I300
tp1072
aF5.28
aa(lp1073
g2
a(I474
I81
tp1074
aF5.32
aa(lp1075
g5
a(I329
I302
tp1076
aF5.32
aa(lp1077
g8
a(I307
I86
tp1078
aF5.32
aa(lp1079
g115
a(I485
I300
tp1080
aF5.32
aa(lp1081
g2
a(I474
I80
tp1082
aF5.36
aa(lp1083
g5
a(I331
I301
tp1084
aF5.36
aa(lp1085
g8
a(I307
I86
tp1086
aF5.36
aa(lp1087
g115
a(I487
I300
tp1088
aF5.36
aa(lp1089
g2
a(I474
I80
tp1090
aF5.4
aa(lp1091
g5
a(I333
I301
tp1092
aF5.4
aa(lp1093
g8
a(I307
I86
tp1094
aF5.4
aa(lp1095
g115
a(I489
I300
tp1096
aF5.4
aa(lp1097
g2
a(I475
I80
tp1098
aF5.44
aa(lp1099
g5
a(I333
I301
tp1100
aF5.44
aa(lp1101
g8
a(I308
I86
tp1102
aF5.44
aa(lp1103
g115
a(I491
I300
tp1104
aF5.44
aa(lp1105
g2
a(I475
I81
tp1106
aF5.48
aa(lp1107
g5
a(I332
I301
tp1108
aF5.48
aa(lp1109
g8
a(I308
I86
tp1110
aF5.48
aa(lp1111
g115
a(I492
I300
tp1112
aF5.48
aa(lp1113
g2
a(I475
I80
tp1114
aF5.52
aa(lp1115
g5
a(I331
I301
tp1116
aF5.52
aa(lp1117
g8
a(I308
I86
tp1118
aF5.52
aa(lp1119
g115
a(I492
I300
tp1120
aF5.52
aa(lp1121
g2
a(I476
I80
tp1122
aF5.56
aa(lp1123
g5
a(I329
I301
tp1124
aF5.56
aa(lp1125
g8
a(I309
I86
tp1126
aF5.56
aa(lp1127
g115
a(I492
I300
tp1128
aF5.56
aa(lp1129
g2
a(I476
I80
tp1130
aF5.6
aa(lp1131
g5
a(I325
I301
tp1132
aF5.6
aa(lp1133
g8
a(I309
I86
tp1134
aF5.6
aa(lp1135
g115
a(I491
I299
tp1136
aF5.6
aa(lp1137
g2
a(I477
I80
tp1138
aF5.64
aa(lp1139
g5
a(I322
I301
tp1140
aF5.64
aa(lp1141
g8
a(I310
I86
tp1142
aF5.64
aa(lp1143
g115
a(I490
I299
tp1144
aF5.64
aa(lp1145
g2
a(I477
I80
tp1146
aF5.68
aa(lp1147
g5
a(I317
I301
tp1148
aF5.68
aa(lp1149
g8
a(I310
I86
tp1150
aF5.68
aa(lp1151
g115
a(I488
I300
tp1152
aF5.68
aa(lp1153
g2
a(I478
I81
tp1154
aF5.72
aa(lp1155
g5
a(I314
I301
tp1156
aF5.72
aa(lp1157
g8
a(I311
I86
tp1158
aF5.72
aa(lp1159
g115
a(I487
I300
tp1160
aF5.72
aa(lp1161
g2
a(I478
I80
tp1162
aF5.76
aa(lp1163
g5
a(I311
I301
tp1164
aF5.76
aa(lp1165
g8
a(I311
I86
tp1166
aF5.76
aa(lp1167
g115
a(I485
I300
tp1168
aF5.76
aa(lp1169
g2
a(I479
I81
tp1170
aF5.8
aa(lp1171
g5
a(I306
I301
tp1172
aF5.8
aa(lp1173
g8
a(I312
I86
tp1174
aF5.8
aa(lp1175
g115
a(I482
I299
tp1176
aF5.8
aa(lp1177
g2
a(I480
I80
tp1178
aF5.84
aa(lp1179
g5
a(I303
I301
tp1180
aF5.84
aa(lp1181
g8
a(I312
I86
tp1182
aF5.84
aa(lp1183
g115
a(I481
I300
tp1184
aF5.84
aa(lp1185
g2
a(I480
I81
tp1186
aF5.88
aa(lp1187
g5
a(I300
I301
tp1188
aF5.88
aa(lp1189
g8
a(I313
I86
tp1190
aF5.88
aa(lp1191
g115
a(I478
I300
tp1192
aF5.88
aa(lp1193
g2
a(I480
I80
tp1194
aF5.92
aa(lp1195
g5
a(I299
I301
tp1196
aF5.92
aa(lp1197
g8
a(I313
I86
tp1198
aF5.92
aa(lp1199
g115
a(I477
I300
tp1200
aF5.92
aa(lp1201
g2
a(I481
I80
tp1202
aF5.96
aa(lp1203
g5
a(I299
I301
tp1204
aF5.96
aa(lp1205
g8
a(I313
I86
tp1206
aF5.96
aa(lp1207
g115
a(I476
I300
tp1208
aF5.96
aa(lp1209
g2
a(I481
I80
tp1210
aF6.0
aa(lp1211
g5
a(I299
I302
tp1212
aF6.0
aa(lp1213
g8
a(I313
I86
tp1214
aF6.0
aa(lp1215
g115
a(I475
I300
tp1216
aF6.0
aa(lp1217
g2
a(I481
I80
tp1218
aF6.04
aa(lp1219
g5
a(I300
I302
tp1220
aF6.04
aa(lp1221
g8
a(I314
I86
tp1222
aF6.04
aa(lp1223
g115
a(I475
I300
tp1224
aF6.04
aa(lp1225
g2
a(I481
I80
tp1226
aF6.08
aa(lp1227
g5
a(I303
I302
tp1228
aF6.08
aa(lp1229
g8
a(I313
I86
tp1230
aF6.08
aa(lp1231
g115
a(I476
I300
tp1232
aF6.08
aa(lp1233
g2
a(I481
I80
tp1234
aF6.12
aa(lp1235
g5
a(I306
I303
tp1236
aF6.12
aa(lp1237
g8
a(I313
I86
tp1238
aF6.12
aa(lp1239
g115
a(I476
I300
tp1240
aF6.12
aa(lp1241
g2
a(I481
I80
tp1242
aF6.16
aa(lp1243
g5
a(I309
I303
tp1244
aF6.16
aa(lp1245
g8
a(I314
I86
tp1246
aF6.16
aa(lp1247
g115
a(I477
I300
tp1248
aF6.16
aa(lp1249
g2
a(I481
I80
tp1250
aF6.2
aa(lp1251
g5
a(I314
I303
tp1252
aF6.2
aa(lp1253
g8
a(I313
I86
tp1254
aF6.2
aa(lp1255
g115
a(I479
I300
tp1256
aF6.2
aa(lp1257
g2
a(I481
I80
tp1258
aF6.24
aa(lp1259
g5
a(I318
I303
tp1260
aF6.24
aa(lp1261
g8
a(I313
I86
tp1262
aF6.24
aa(lp1263
g115
a(I481
I300
tp1264
aF6.24
aa(lp1265
g2
a(I481
I80
tp1266
aF6.28
aa(lp1267
g5
a(I323
I303
tp1268
aF6.28
aa(lp1269
g8
a(I313
I86
tp1270
aF6.28
aa(lp1271
g115
a(I484
I300
tp1272
aF6.28
aa(lp1273
g2
a(I481
I80
tp1274
aF6.32
aa(lp1275
g5
a(I327
I303
tp1276
aF6.32
aa(lp1277
g8
a(I313
I86
tp1278
aF6.32
aa(lp1279
g115
a(I486
I300
tp1280
aF6.32
aa(lp1281
g2
a(I481
I80
tp1282
aF6.36
aa(lp1283
g5
a(I330
I302
tp1284
aF6.36
aa(lp1285
g8
a(I313
I86
tp1286
aF6.36
aa(lp1287
g115
a(I487
I300
tp1288
aF6.36
aa(lp1289
g2
a(I481
I80
tp1290
aF6.4
aa(lp1291
g5
a(I335
I302
tp1292
aF6.4
aa(lp1293
g8
a(I313
I86
tp1294
aF6.4
aa(lp1295
g115
a(I490
I300
tp1296
aF6.4
aa(lp1297
g2
a(I481
I80
tp1298
aF6.44
aa(lp1299
g5
a(I337
I302
tp1300
aF6.44
aa(lp1301
g8
a(I314
I86
tp1302
aF6.44
aa(lp1303
g115
a(I492
I300
tp1304
aF6.44
aa(lp1305
g2
a(I481
I80
tp1306
aF6.48
aa(lp1307
g5
a(I338
I301
tp1308
aF6.48
aa(lp1309
g8
a(I314
I86
tp1310
aF6.48
aa(lp1311
g115
a(I494
I300
tp1312
aF6.48
aa(lp1313
g2
a(I482
I80
tp1314
aF6.52
aa(lp1315
g5
a(I339
I301
tp1316
aF6.52
aa(lp1317
g8
a(I314
I86
tp1318
aF6.52
aa(lp1319
g115
a(I495
I300
tp1320
aF6.52
aa(lp1321
g2
a(I482
I80
tp1322
aF6.56
aa(lp1323
g5
a(I339
I301
tp1324
aF6.56
aa(lp1325
g8
a(I314
I86
tp1326
aF6.56
aa(lp1327
g115
a(I496
I300
tp1328
aF6.56
aa(lp1329
g2
a(I482
I80
tp1330
aF6.6
aa(lp1331
g5
a(I337
I301
tp1332
aF6.6
aa(lp1333
g8
a(I315
I86
tp1334
aF6.6
aa(lp1335
g115
a(I496
I300
tp1336
aF6.6
aa(lp1337
g2
a(I483
I80
tp1338
aF6.64
aa(lp1339
g5
a(I336
I301
tp1340
aF6.64
aa(lp1341
g8
a(I315
I86
tp1342
aF6.64
aa(lp1343
g115
a(I496
I300
tp1344
aF6.64
aa(lp1345
g2
a(I483
I80
tp1346
aF6.68
aa(lp1347
g5
a(I332
I301
tp1348
aF6.68
aa(lp1349
g8
a(I316
I86
tp1350
aF6.68
aa(lp1351
g115
a(I496
I300
tp1352
aF6.68
aa(lp1353
g2
a(I484
I80
tp1354
aF6.72
aa(lp1355
g5
a(I329
I301
tp1356
aF6.72
aa(lp1357
g8
a(I316
I86
tp1358
aF6.72
aa(lp1359
g115
a(I495
I300
tp1360
aF6.72
aa(lp1361
g2
a(I484
I80
tp1362
aF6.76
aa(lp1363
g5
a(I326
I301
tp1364
aF6.76
aa(lp1365
g8
a(I317
I86
tp1366
aF6.76
aa(lp1367
g115
a(I494
I300
tp1368
aF6.76
aa(lp1369
g2
a(I485
I80
tp1370
aF6.8
aa(lp1371
g5
a(I322
I301
tp1372
aF6.8
aa(lp1373
g8
a(I317
I86
tp1374
aF6.8
aa(lp1375
g115
a(I492
I300
tp1376
aF6.8
aa(lp1377
g2
a(I485
I80
tp1378
aF6.84
aa(lp1379
g5
a(I318
I301
tp1380
aF6.84
aa(lp1381
g8
a(I318
I86
tp1382
aF6.84
aa(lp1383
g115
a(I491
I300
tp1384
aF6.84
aa(lp1385
g2
a(I486
I80
tp1386
aF6.88
aa(lp1387
g5
a(I315
I301
tp1388
aF6.88
aa(lp1389
g8
a(I318
I86
tp1390
aF6.88
aa(lp1391
g115
a(I490
I300
tp1392
aF6.88
aa(lp1393
g2
a(I487
I80
tp1394
aF6.92
aa(lp1395
g5
a(I311
I301
tp1396
aF6.92
aa(lp1397
g8
a(I319
I86
tp1398
aF6.92
aa(lp1399
g115
a(I488
I300
tp1400
aF6.92
aa(lp1401
g2
a(I487
I80
tp1402
aF6.96
aa(lp1403
g5
a(I309
I301
tp1404
aF6.96
aa(lp1405
g8
a(I319
I85
tp1406
aF6.96
aa(lp1407
g115
a(I487
I300
tp1408
aF6.96
aa(lp1409
g2
a(I487
I80
tp1410
aF7.0
aa(lp1411
g5
a(I307
I301
tp1412
aF7.0
aa(lp1413
g8
a(I320
I86
tp1414
aF7.0
aa(lp1415
g115
a(I486
I300
tp1416
aF7.0
aa(lp1417
g2
a(I488
I80
tp1418
aF7.04
aa(lp1419
g5
a(I306
I301
tp1420
aF7.04
aa(lp1421
g8
a(I320
I85
tp1422
aF7.04
aa(lp1423
g115
a(I485
I300
tp1424
aF7.04
aa(lp1425
g2
a(I488
I80
tp1426
aF7.08
aa(lp1427
g5
a(I306
I301
tp1428
aF7.08
aa(lp1429
g8
a(I320
I85
tp1430
aF7.08
aa(lp1431
g115
a(I485
I300
tp1432
aF7.08
aa(lp1433
g2
a(I488
I80
tp1434
aF7.12
aa(lp1435
g5
a(I307
I302
tp1436
aF7.12
aa(lp1437
g8
a(I320
I86
tp1438
aF7.12
aa(lp1439
g115
a(I485
I300
tp1440
aF7.12
aa(lp1441
g2
a(I488
I80
tp1442
aF7.16
aa(lp1443
g5
a(I309
I302
tp1444
aF7.16
aa(lp1445
g8
a(I321
I86
tp1446
aF7.16
aa(lp1447
g115
a(I485
I300
tp1448
aF7.16
aa(lp1449
g2
a(I488
I80
tp1450
aF7.2
aa(lp1451
g5
a(I312
I302
tp1452
aF7.2
aa(lp1453
g8
a(I321
I86
tp1454
aF7.2
aa(lp1455
g115
a(I486
I300
tp1456
aF7.2
aa(lp1457
g2
a(I488
I80
tp1458
aF7.24
aa(lp1459
g5
a(I315
I303
tp1460
aF7.24
aa(lp1461
g8
a(I321
I85
tp1462
aF7.24
aa(lp1463
g115
a(I487
I300
tp1464
aF7.24
aa(lp1465
g2
a(I488
I80
tp1466
aF7.28
aa(lp1467
g5
a(I318
I303
tp1468
aF7.28
aa(lp1469
g8
a(I321
I86
tp1470
aF7.28
aa(lp1471
g115
a(I488
I300
tp1472
aF7.28
aa(lp1473
g2
a(I488
I80
tp1474
aF7.32
aa(lp1475
g5
a(I324
I303
tp1476
aF7.32
aa(lp1477
g8
a(I321
I85
tp1478
aF7.32
aa(lp1479
g115
a(I490
I300
tp1480
aF7.32
aa(lp1481
g2
a(I488
I80
tp1482
aF7.36
aa(lp1483
g5
a(I328
I303
tp1484
aF7.36
aa(lp1485
g8
a(I320
I85
tp1486
aF7.36
aa(lp1487
g115
a(I492
I300
tp1488
aF7.36
aa(lp1489
g2
a(I488
I80
tp1490
aF7.4
aa(lp1491
g5
a(I333
I303
tp1492
aF7.4
aa(lp1493
g8
a(I320
I85
tp1494
aF7.4
aa(lp1495
g115
a(I494
I300
tp1496
aF7.4
aa(lp1497
g2
a(I488
I80
tp1498
aF7.44
aa(lp1499
g5
a(I336
I302
tp1500
aF7.44
aa(lp1501
g8
a(I320
I85
tp1502
aF7.44
aa(lp1503
g115
a(I495
I300
tp1504
aF7.44
aa(lp1505
g2
a(I488
I80
tp1506
aF7.48
aa(lp1507
g5
a(I339
I302
tp1508
aF7.48
aa(lp1509
g8
a(I320
I85
tp1510
aF7.48
aa(lp1511
g115
a(I497
I300
tp1512
aF7.48
aa(lp1513
g2
a(I488
I80
tp1514
aF7.52
aa(lp1515
g5
a(I343
I302
tp1516
aF7.52
aa(lp1517
g8
a(I321
I85
tp1518
aF7.52
aa(lp1519
g115
a(I498
I300
tp1520
aF7.52
aa(lp1521
g2
a(I488
I80
tp1522
aF7.56
aa(lp1523
g5
a(I344
I301
tp1524
aF7.56
aa(lp1525
g8
a(I321
I85
tp1526
aF7.56
aa(lp1527
g115
a(I499
I300
tp1528
aF7.56
aa(lp1529
g2
a(I489
I80
tp1530
aF7.6
aa(lp1531
g5
a(I345
I301
tp1532
aF7.6
aa(lp1533
g8
a(I321
I85
tp1534
aF7.6
aa(lp1535
g115
a(I500
I299
tp1536
aF7.6
aa(lp1537
g2
a(I489
I80
tp1538
aF7.64
aa(lp1539
g5
a(I346
I301
tp1540
aF7.64
aa(lp1541
g8
a(I321
I85
tp1542
aF7.64
aa(lp1543
g115
a(I500
I300
tp1544
aF7.64
aa(lp1545
g2
a(I489
I80
tp1546
aF7.68
aa(lp1547
g5
a(I345
I301
tp1548
aF7.68
aa(lp1549
g8
a(I322
I86
tp1550
aF7.68
aa(lp1551
g115
a(I501
I300
tp1552
aF7.68
aa(lp1553
g2
a(I490
I80
tp1554
aF7.72
aa(lp1555
g5
a(I343
I301
tp1556
aF7.72
aa(lp1557
g8
a(I322
I85
tp1558
aF7.72
aa(lp1559
g115
a(I500
I300
tp1560
aF7.72
aa(lp1561
g2
a(I490
I80
tp1562
aF7.76
aa(lp1563
g5
a(I341
I301
tp1564
aF7.76
aa(lp1565
g8
a(I322
I85
tp1566
aF7.76
aa(lp1567
g115
a(I500
I300
tp1568
aF7.76
aa(lp1569
g2
a(I490
I80
tp1570
aF7.8
aa(lp1571
g5
a(I337
I301
tp1572
aF7.8
aa(lp1573
g8
a(I323
I85
tp1574
aF7.8
aa(lp1575
g115
a(I499
I300
tp1576
aF7.8
aa(lp1577
g2
a(I491
I80
tp1578
aF7.84
aa(lp1579
g5
a(I334
I302
tp1580
aF7.84
aa(lp1581
g8
a(I323
I85
tp1582
aF7.84
aa(lp1583
g115
a(I498
I300
tp1584
aF7.84
aa(lp1585
g2
a(I491
I80
tp1586
aF7.88
aa(lp1587
g5
a(I331
I301
tp1588
aF7.88
aa(lp1589
g8
a(I324
I85
tp1590
aF7.88
aa(lp1591
g115
a(I497
I299
tp1592
aF7.88
aa(lp1593
g2
a(I492
I80
tp1594
aF7.92
aa(lp1595
g5
a(I326
I301
tp1596
aF7.92
aa(lp1597
g8
a(I324
I85
tp1598
aF7.92
aa(lp1599
g115
a(I496
I300
tp1600
aF7.92
aa(lp1601
g2
a(I492
I80
tp1602
aF7.96
aa(lp1603
g5
a(I323
I301
tp1604
aF7.96
aa(lp1605
g8
a(I324
I85
tp1606
aF7.96
aa(lp1607
g115
a(I495
I300
tp1608
aF7.96
aa(lp1609
g2
a(I493
I80
tp1610
aF8.0
aa(lp1611
g5
a(I319
I301
tp1612
aF8.0
aa(lp1613
g8
a(I325
I85
tp1614
aF8.0
aa(lp1615
g115
a(I494
I300
tp1616
aF8.0
aa(lp1617
g2
a(I493
I80
tp1618
aF8.04
aa(lp1619
g5
a(I317
I301
tp1620
aF8.04
aa(lp1621
g8
a(I325
I85
tp1622
aF8.04
aa(lp1623
g115
a(I493
I300
tp1624
aF8.04
aa(lp1625
g2
a(I493
I80
tp1626
aF8.08
aa(lp1627
g5
a(I315
I301
tp1628
aF8.08
aa(lp1629
g8
a(I325
I85
tp1630
aF8.08
aa(lp1631
g115
a(I492
I299
tp1632
aF8.08
aa(lp1633
g2
a(I493
I80
tp1634
aF8.12
aa(lp1635
g5
a(I313
I301
tp1636
aF8.12
aa(lp1637
g8
a(I326
I85
tp1638
aF8.12
aa(lp1639
g115
a(I492
I300
tp1640
aF8.12
aa(lp1641
g2
a(I493
I80
tp1642
aF8.16
aa(lp1643
g5
a(I313
I301
tp1644
aF8.16
aa(lp1645
g8
a(I326
I85
tp1646
aF8.16
aa(lp1647
g115
a(I492
I300
tp1648
aF8.16
aa(lp1649
g2
a(I493
I80
tp1650
aF8.2
aa(lp1651
g5
a(I313
I302
tp1652
aF8.2
aa(lp1653
g8
a(I326
I85
tp1654
aF8.2
aa(lp1655
g115
a(I492
I300
tp1656
aF8.2
aa(lp1657
g2
a(I493
I80
tp1658
aF8.24
aa(lp1659
g5
a(I315
I302
tp1660
aF8.24
aa(lp1661
g8
a(I326
I85
tp1662
aF8.24
aa(lp1663
g115
a(I492
I299
tp1664
aF8.24
aa(lp1665
g2
a(I493
I80
tp1666
aF8.28
aa(lp1667
g5
a(I316
I302
tp1668
aF8.28
aa(lp1669
g8
a(I326
I85
tp1670
aF8.28
aa(lp1671
g115
a(I493
I300
tp1672
aF8.28
aa(lp1673
g2
a(I493
I80
tp1674
aF8.32
aa(lp1675
g5
a(I320
I302
tp1676
aF8.32
aa(lp1677
g8
a(I325
I85
tp1678
aF8.32
aa(lp1679
g115
a(I494
I300
tp1680
aF8.32
aa(lp1681
g2
a(I493
I80
tp1682
aF8.36
aa(lp1683
g5
a(I323
I303
tp1684
aF8.36
aa(lp1685
g8
a(I325
I85
tp1686
aF8.36
aa(lp1687
g115
a(I495
I300
tp1688
aF8.36
aa(lp1689
g2
a(I493
I80
tp1690
aF8.4
aa(lp1691
g5
a(I327
I303
tp1692
aF8.4
aa(lp1693
g8
a(I325
I85
tp1694
aF8.4
aa(lp1695
g115
a(I497
I300
tp1696
aF8.4
aa(lp1697
g2
a(I492
I80
tp1698
aF8.44
aa(lp1699
g5
a(I331
I303
tp1700
aF8.44
aa(lp1701
g8
a(I325
I85
tp1702
aF8.44
aa(lp1703
g115
a(I498
I300
tp1704
aF8.44
aa(lp1705
g2
a(I492
I80
tp1706
aF8.48
aa(lp1707
g5
a(I334
I302
tp1708
aF8.48
aa(lp1709
g8
a(I325
I85
tp1710
aF8.48
aa(lp1711
g115
a(I499
I300
tp1712
aF8.48
aa(lp1713
g2
a(I492
I80
tp1714
aF8.52
aa(lp1715
g5
a(I339
I303
tp1716
aF8.52
aa(lp1717
g8
a(I324
I85
tp1718
aF8.52
aa(lp1719
g115
a(I500
I300
tp1720
aF8.52
aa(lp1721
g2
a(I492
I80
tp1722
aF8.56
aa(lp1723
g5
a(I341
I302
tp1724
aF8.56
aa(lp1725
g8
a(I324
I85
tp1726
aF8.56
aa(lp1727
g115
a(I501
I300
tp1728
aF8.56
aa(lp1729
g2
a(I492
I80
tp1730
aF8.6
aa(lp1731
g5
a(I345
I302
tp1732
aF8.6
aa(lp1733
g8
a(I324
I85
tp1734
aF8.6
aa(lp1735
g115
a(I502
I300
tp1736
aF8.6
aa(lp1737
g2
a(I492
I80
tp1738
aF8.64
aa(lp1739
g5
a(I346
I302
tp1740
aF8.64
aa(lp1741
g8
a(I325
I85
tp1742
aF8.64
aa(lp1743
g115
a(I502
I299
tp1744
aF8.64
aa(lp1745
g2
a(I492
I80
tp1746
aF8.68
aa(lp1747
g5
a(I348
I301
tp1748
aF8.68
aa(lp1749
g8
a(I325
I85
tp1750
aF8.68
aa(lp1751
g115
a(I503
I300
tp1752
aF8.68
aa(lp1753
g2
a(I492
I80
tp1754
aF8.72
aa(lp1755
g5
a(I348
I301
tp1756
aF8.72
aa(lp1757
g8
a(I325
I85
tp1758
aF8.72
aa(lp1759
g115
a(I503
I300
tp1760
aF8.72
aa(lp1761
g2
a(I493
I80
tp1762
aF8.76
aa(lp1763
g5
a(I348
I301
tp1764
aF8.76
aa(lp1765
g8
a(I325
I85
tp1766
aF8.76
aa(lp1767
g115
a(I502
I299
tp1768
aF8.76
aa(lp1769
g2
a(I493
I80
tp1770
aF8.8
aa(lp1771
g5
a(I346
I301
tp1772
aF8.8
aa(lp1773
g8
a(I325
I85
tp1774
aF8.8
aa(lp1775
g115
a(I502
I300
tp1776
aF8.8
aa(lp1777
g2
a(I493
I80
tp1778
aF8.84
aa(lp1779
g5
a(I344
I301
tp1780
aF8.84
aa(lp1781
g8
a(I325
I85
tp1782
aF8.84
aa(lp1783
g115
a(I501
I300
tp1784
aF8.84
aa(lp1785
g2
a(I493
I80
tp1786
aF8.88
aa(lp1787
g5
a(I342
I301
tp1788
aF8.88
aa(lp1789
g8
a(I326
I85
tp1790
aF8.88
aa(lp1791
g115
a(I500
I299
tp1792
aF8.88
aa(lp1793
g2
a(I493
I80
tp1794
aF8.92
aa(lp1795
g5
a(I338
I301
tp1796
aF8.92
aa(lp1797
g8
a(I326
I85
tp1798
aF8.92
aa(lp1799
g115
a(I499
I300
tp1800
aF8.92
aa(lp1801
g2
a(I494
I80
tp1802
aF8.96
aa(lp1803
g5
a(I335
I301
tp1804
aF8.96
aa(lp1805
g8
a(I326
I85
tp1806
aF8.96
aa(lp1807
g115
a(I498
I300
tp1808
aF8.96
aa(lp1809
g2
a(I494
I80
tp1810
aF9.0
aa(lp1811
g5
a(I330
I301
tp1812
aF9.0
aa(lp1813
g8
a(I326
I85
tp1814
aF9.0
aa(lp1815
g115
a(I497
I300
tp1816
aF9.0
aa(lp1817
g2
a(I494
I80
tp1818
aF9.04
aa(lp1819
g5
a(I327
I301
tp1820
aF9.04
aa(lp1821
g8
a(I327
I85
tp1822
aF9.04
aa(lp1823
g115
a(I496
I300
tp1824
aF9.04
aa(lp1825
g2
a(I494
I80
tp1826
aF9.08
aa(lp1827
g5
a(I324
I301
tp1828
aF9.08
aa(lp1829
g8
a(I327
I85
tp1830
aF9.08
aa(lp1831
g115
a(I495
I299
tp1832
aF9.08
aa(lp1833
g2
a(I495
I80
tp1834
aF9.12
aa(lp1835
g5
a(I320
I301
tp1836
aF9.12
aa(lp1837
g8
a(I327
I85
tp1838
aF9.12
aa(lp1839
g115
a(I495
I300
tp1840
aF9.12
aa(lp1841
g2
a(I495
I80
tp1842
aF9.16
aa(lp1843
g5
a(I319
I301
tp1844
aF9.16
aa(lp1845
g8
a(I327
I85
tp1846
aF9.16
aa(lp1847
g115
a(I494
I300
tp1848
aF9.16
aa(lp1849
g2
a(I495
I80
tp1850
aF9.2
aa(lp1851
g5
a(I316
I301
tp1852
aF9.2
aa(lp1853
g8
a(I327
I85
tp1854
aF9.2
aa(lp1855
g115
a(I494
I300
tp1856
aF9.2
aa(lp1857
g2
a(I495
I80
tp1858
aF9.24
aa(lp1859
g5
a(I316
I301
tp1860
aF9.24
aa(lp1861
g8
a(I327
I85
tp1862
aF9.24
aa(lp1863
g115
a(I494
I299
tp1864
aF9.24
aa(lp1865
g2
a(I495
I80
tp1866
aF9.28
aa(lp1867
g5
a(I316
I301
tp1868
aF9.28
aa(lp1869
g8
a(I327
I85
tp1870
aF9.28
aa(lp1871
g115
a(I494
I300
tp1872
aF9.28
aa(lp1873
g2
a(I495
I80
tp1874
aF9.32
aa(lp1875
g5
a(I316
I301
tp1876
aF9.32
aa(lp1877
g8
a(I327
I85
tp1878
aF9.32
aa(lp1879
g115
a(I495
I299
tp1880
aF9.32
aa(lp1881
g2
a(I494
I80
tp1882
aF9.36
aa(lp1883
g5
a(I318
I301
tp1884
aF9.36
aa(lp1885
g8
a(I327
I85
tp1886
aF9.36
aa(lp1887
g115
a(I496
I300
tp1888
aF9.36
aa(lp1889
g2
a(I494
I80
tp1890
aF9.4
aa(lp1891
g5
a(I321
I302
tp1892
aF9.4
aa(lp1893
g8
a(I327
I85
tp1894
aF9.4
aa(lp1895
g115
a(I497
I299
tp1896
aF9.4
aa(lp1897
g2
a(I494
I80
tp1898
aF9.44
aa(lp1899
g5
a(I323
I302
tp1900
aF9.44
aa(lp1901
g8
a(I327
I85
tp1902
aF9.44
aa(lp1903
g115
a(I498
I299
tp1904
aF9.44
aa(lp1905
g2
a(I494
I80
tp1906
aF9.48
aa(lp1907
g5
a(I326
I302
tp1908
aF9.48
aa(lp1909
g8
a(I326
I85
tp1910
aF9.48
aa(lp1911
g115
a(I499
I300
tp1912
aF9.48
aa(lp1913
g2
a(I494
I80
tp1914
aF9.52
aa(lp1915
g5
a(I330
I302
tp1916
aF9.52
aa(lp1917
g8
a(I326
I85
tp1918
aF9.52
aa(lp1919
g115
a(I500
I299
tp1920
aF9.52
aa(lp1921
g2
a(I494
I80
tp1922
aF9.56
aa(lp1923
g5
a(I333
I302
tp1924
aF9.56
aa(lp1925
g8
a(I326
I85
tp1926
aF9.56
aa(lp1927
g115
a(I501
I300
tp1928
aF9.56
aa(lp1929
g2
a(I494
I80
tp1930
aF9.6
aa(lp1931
g5
a(I338
I302
tp1932
aF9.6
aa(lp1933
g8
a(I326
I85
tp1934
aF9.6
aa(lp1935
g115
a(I502
I300
tp1936
aF9.6
aa(lp1937
g2
a(I494
I80
tp1938
aF9.64
aa(lp1939
g5
a(I340
I302
tp1940
aF9.64
aa(lp1941
g8
a(I326
I85
tp1942
aF9.64
aa(lp1943
g115
a(I503
I300
tp1944
aF9.64
aa(lp1945
g2
a(I494
I80
tp1946
aF9.68
aa(lp1947
g5
a(I343
I302
tp1948
aF9.68
aa(lp1949
g8
a(I326
I85
tp1950
aF9.68
aa(lp1951
g115
a(I503
I300
tp1952
aF9.68
aa(lp1953
g2
a(I494
I80
tp1954
aF9.72
aa(lp1955
g5
a(I346
I302
tp1956
aF9.72
aa(lp1957
g8
a(I326
I85
tp1958
aF9.72
aa(lp1959
g115
a(I503
I299
tp1960
aF9.72
aa(lp1961
g2
a(I494
I80
tp1962
aF9.76
aa(lp1963
g5
a(I347
I302
tp1964
aF9.76
aa(lp1965
g8
a(I327
I85
tp1966
aF9.76
aa(lp1967
g115
a(I503
I299
tp1968
aF9.76
aa(lp1969
g2
a(I494
I80
tp1970
aF9.8
aa(lp1971
g5
a(I348
I301
tp1972
aF9.8
aa(lp1973
g8
a(I327
I85
tp1974
aF9.8
aa(lp1975
g115
a(I503
I300
tp1976
aF9.8
aa(lp1977
g2
a(I494
I80
tp1978
aF9.84
aa(lp1979
g5
a(I348
I301
tp1980
aF9.84
aa(lp1981
g8
a(I327
I85
tp1982
aF9.84
aa(lp1983
g115
a(I503
I300
tp1984
aF9.84
aa(lp1985
g2
a(I495
I80
tp1986
aF9.88
aa(lp1987
g5
a(I348
I301
tp1988
aF9.88
aa(lp1989
g8
a(I327
I85
tp1990
aF9.88
aa(lp1991
g115
a(I502
I299
tp1992
aF9.88
aa(lp1993
g2
a(I495
I80
tp1994
aF9.92
aa(lp1995
g5
a(I346
I301
tp1996
aF9.92
aa(lp1997
g8
a(I328
I85
tp1998
aF9.92
aa(lp1999
g115
a(I501
I299
tp2000
aF9.92
aa(lp2001
g2
a(I495
I80
tp2002
aF9.96
aa(lp2003
g5
a(I344
I301
tp2004
aF9.96
aa(lp2005
g8
a(I328
I85
tp2006
aF9.96
aa(lp2007
g115
a(I501
I300
tp2008
aF9.96
aa(lp2009
g2
a(I496
I80
tp2010
aF10.0
aa(lp2011
g5
a(I341
I301
tp2012
aF10.0
aa(lp2013
g8
a(I328
I85
tp2014
aF10.0
aa(lp2015
g115
a(I500
I300
tp2016
aF10.0
aa(lp2017
g2
a(I496
I80
tp2018
aF10.04
aa(lp2019
g5
a(I338
I301
tp2020
aF10.04
aa(lp2021
g8
a(I329
I85
tp2022
aF10.04
aa(lp2023
g115
a(I499
I300
tp2024
aF10.04
aa(lp2025
g2
a(I496
I80
tp2026
aF10.08
aa(lp2027
g5
a(I336
I301
tp2028
aF10.08
aa(lp2029
g8
a(I329
I85
tp2030
aF10.08
aa(lp2031
g115
a(I499
I300
tp2032
aF10.08
aa(lp2033
g2
a(I497
I80
tp2034
aF10.12
aa(lp2035
g5
a(I332
I301
tp2036
aF10.12
aa(lp2037
g8
a(I329
I85
tp2038
aF10.12
aa(lp2039
g115
a(I498
I300
tp2040
aF10.12
aa(lp2041
g2
a(I497
I80
tp2042
aF10.16
aa(lp2043
g5
a(I329
I301
tp2044
aF10.16
aa(lp2045
g8
a(I330
I85
tp2046
aF10.16
aa(lp2047
g115
a(I497
I299
tp2048
aF10.16
aa(lp2049
g2
a(I497
I80
tp2050
aF10.2
aa(lp2051
g5
a(I327
I301
tp2052
aF10.2
aa(lp2053
g8
a(I330
I85
tp2054
aF10.2
aa(lp2055
g115
a(I497
I299
tp2056
aF10.2
aa(lp2057
g2
a(I498
I80
tp2058
aF10.24
aa(lp2059
g5
a(I324
I301
tp2060
aF10.24
aa(lp2061
g8
a(I330
I85
tp2062
aF10.24
aa(lp2063
g115
a(I497
I300
tp2064
aF10.24
aa(lp2065
g2
a(I498
I80
tp2066
aF10.28
aa(lp2067
g5
a(I322
I301
tp2068
aF10.28
aa(lp2069
g8
a(I330
I85
tp2070
aF10.28
aa(lp2071
g115
a(I498
I300
tp2072
aF10.28
aa(lp2073
g2
a(I498
I80
tp2074
aF10.32
aa(lp2075
g5
a(I321
I301
tp2076
aF10.32
aa(lp2077
g8
a(I330
I85
tp2078
aF10.32
aa(lp2079
g115
a(I498
I299
tp2080
aF10.32
aa(lp2081
g2
a(I498
I80
tp2082
aF10.36
aa(lp2083
g5
a(I320
I301
tp2084
aF10.36
aa(lp2085
g8
a(I330
I85
tp2086
aF10.36
aa(lp2087
g115
a(I499
I300
tp2088
aF10.36
aa(lp2089
g2
a(I498
I80
tp2090
aF10.4
aa(lp2091
g5
a(I321
I301
tp2092
aF10.4
aa(lp2093
g8
a(I330
I85
tp2094
aF10.4
aa(lp2095
g115
a(I500
I300
tp2096
aF10.4
aa(lp2097
g2
a(I498
I80
tp2098
aF10.44
aa(lp2099
g5
a(I322
I301
tp2100
aF10.44
aa(lp2101
g8
a(I330
I85
tp2102
aF10.44
aa(lp2103
g115
a(I501
I300
tp2104
aF10.44
aa(lp2105
g2
a(I497
I80
tp2106
aF10.48
aa(lp2107
g5
a(I323
I302
tp2108
aF10.48
aa(lp2109
g8
a(I330
I85
tp2110
aF10.48
aa(lp2111
g115
a(I502
I300
tp2112
aF10.48
aa(lp2113
g2
a(I497
I80
tp2114
aF10.52
aa(lp2115
g5
a(I326
I302
tp2116
aF10.52
aa(lp2117
g8
a(I330
I85
tp2118
aF10.52
aa(lp2119
g115
a(I503
I300
tp2120
aF10.52
aa(lp2121
g2
a(I497
I80
tp2122
aF10.56
aa(lp2123
g5
a(I328
I302
tp2124
aF10.56
aa(lp2125
g8
a(I330
I85
tp2126
aF10.56
aa(lp2127
g115
a(I504
I299
tp2128
aF10.56
aa(lp2129
g2
a(I497
I80
tp2130
aF10.6
aa(lp2131
g5
a(I331
I302
tp2132
aF10.6
aa(lp2133
g8
a(I330
I85
tp2134
aF10.6
aa(lp2135
g115
a(I505
I299
tp2136
aF10.6
aa(lp2137
g2
a(I497
I80
tp2138
aF10.64
aa(lp2139
g5
a(I335
I303
tp2140
aF10.64
aa(lp2141
g8
a(I330
I85
tp2142
aF10.64
aa(lp2143
g115
a(I506
I299
tp2144
aF10.64
aa(lp2145
g2
a(I497
I80
tp2146
aF10.68
aa(lp2147
g5
a(I338
I302
tp2148
aF10.68
aa(lp2149
g8
a(I330
I85
tp2150
aF10.68
aa(lp2151
g115
a(I506
I299
tp2152
aF10.68
aa(lp2153
g2
a(I497
I80
tp2154
aF10.72
aa(lp2155
g5
a(I342
I302
tp2156
aF10.72
aa(lp2157
g8
a(I330
I85
tp2158
aF10.72
aa(lp2159
g115
a(I507
I299
tp2160
aF10.72
aa(lp2161
g2
a(I497
I80
tp2162
aF10.76
aa(lp2163
g5
a(I344
I302
tp2164
aF10.76
aa(lp2165
g8
a(I330
I85
tp2166
aF10.76
aa(lp2167
g115
a(I507
I299
tp2168
aF10.76
aa(lp2169
g2
a(I497
I80
tp2170
aF10.8
aa(lp2171
g5
a(I346
I302
tp2172
aF10.8
aa(lp2173
g8
a(I330
I85
tp2174
aF10.8
aa(lp2175
g115
a(I507
I299
tp2176
aF10.8
aa(lp2177
g2
a(I497
I80
tp2178
aF10.84
aa(lp2179
g5
a(I348
I302
tp2180
aF10.84
aa(lp2181
g8
a(I330
I85
tp2182
aF10.84
aa(lp2183
g115
a(I506
I299
tp2184
aF10.84
aa(lp2185
g2
a(I497
I80
tp2186
aF10.88
aa(lp2187
g5
a(I349
I302
tp2188
aF10.88
aa(lp2189
g8
a(I330
I85
tp2190
aF10.88
aa(lp2191
g115
a(I506
I299
tp2192
aF10.88
aa(lp2193
g2
a(I498
I80
tp2194
aF10.92
aa(lp2195
g5
a(I350
I302
tp2196
aF10.92
aa(lp2197
g8
a(I330
I85
tp2198
aF10.92
aa(lp2199
g115
a(I505
I300
tp2200
aF10.92
aa(lp2201
g2
a(I498
I80
tp2202
aF10.96
aa(lp2203
g5
a(I350
I302
tp2204
aF10.96
aa(lp2205
g8
a(I330
I85
tp2206
aF10.96
aa(lp2207
g115
a(I504
I299
tp2208
aF10.96
aa(lp2209
g2
a(I498
I80
tp2210
aF11.0
aa(lp2211
g5
a(I349
I302
tp2212
aF11.0
aa(lp2213
g8
a(I331
I85
tp2214
aF11.0
aa(lp2215
g115
a(I503
I299
tp2216
aF11.0
aa(lp2217
g2
a(I498
I80
tp2218
aF11.04
aa(lp2219
g5
a(I347
I302
tp2220
aF11.04
aa(lp2221
g8
a(I331
I85
tp2222
aF11.04
aa(lp2223
g115
a(I502
I299
tp2224
aF11.04
aa(lp2225
g2
a(I498
I80
tp2226
aF11.08
aa(lp2227
g5
a(I345
I302
tp2228
aF11.08
aa(lp2229
g8
a(I331
I85
tp2230
aF11.08
aa(lp2231
g115
a(I501
I299
tp2232
aF11.08
aa(lp2233
g2
a(I499
I80
tp2234
aF11.12
aa(lp2235
g5
a(I342
I302
tp2236
aF11.12
aa(lp2237
g8
a(I331
I85
tp2238
aF11.12
aa(lp2239
g115
a(I500
I300
tp2240
aF11.12
aa(lp2241
g2
a(I499
I80
tp2242
aF11.16
aa(lp2243
g5
a(I340
I302
tp2244
aF11.16
aa(lp2245
g8
a(I332
I85
tp2246
aF11.16
aa(lp2247
g115
a(I500
I300
tp2248
aF11.16
aa(lp2249
g2
a(I499
I80
tp2250
aF11.2
aa(lp2251
g5
a(I337
I302
tp2252
aF11.2
aa(lp2253
g8
a(I332
I85
tp2254
aF11.2
aa(lp2255
g115
a(I499
I299
tp2256
aF11.2
aa(lp2257
g2
a(I499
I80
tp2258
aF11.24
aa(lp2259
g5
a(I333
I302
tp2260
aF11.24
aa(lp2261
g8
a(I332
I85
tp2262
aF11.24
aa(lp2263
g115
a(I499
I300
tp2264
aF11.24
aa(lp2265
g2
a(I499
I80
tp2266
aF11.28
aa(lp2267
g5
a(I331
I301
tp2268
aF11.28
aa(lp2269
g8
a(I332
I85
tp2270
aF11.28
aa(lp2271
g115
a(I499
I300
tp2272
aF11.28
aa(lp2273
g2
a(I500
I80
tp2274
aF11.32
aa(lp2275
g5
a(I328
I301
tp2276
aF11.32
aa(lp2277
g8
a(I332
I85
tp2278
aF11.32
aa(lp2279
g115
a(I499
I300
tp2280
aF11.32
aa(lp2281
g2
a(I500
I80
tp2282
aF11.36
aa(lp2283
g5
a(I327
I301
tp2284
aF11.36
aa(lp2285
g8
a(I332
I85
tp2286
aF11.36
aa(lp2287
g115
a(I499
I299
tp2288
aF11.36
aa(lp2289
g2
a(I499
I80
tp2290
aF11.4
aa(lp2291
g5
a(I325
I301
tp2292
aF11.4
aa(lp2293
g8
a(I332
I85
tp2294
aF11.4
aa(lp2295
g115
a(I500
I300
tp2296
aF11.4
aa(lp2297
g2
a(I499
I80
tp2298
aF11.44
aa(lp2299
g5
a(I324
I301
tp2300
aF11.44
aa(lp2301
g8
a(I332
I85
tp2302
aF11.44
aa(lp2303
g115
a(I501
I299
tp2304
aF11.44
aa(lp2305
g2
a(I499
I80
tp2306
aF11.48
aa(lp2307
g5
a(I324
I301
tp2308
aF11.48
aa(lp2309
g8
a(I332
I85
tp2310
aF11.48
aa(lp2311
g115
a(I502
I300
tp2312
aF11.48
aa(lp2313
g2
a(I499
I80
tp2314
aF11.52
aa(lp2315
g5
a(I324
I301
tp2316
aF11.52
aa(lp2317
g8
a(I332
I85
tp2318
aF11.52
aa(lp2319
g115
a(I503
I299
tp2320
aF11.52
aa(lp2321
g2
a(I499
I80
tp2322
aF11.56
aa(lp2323
g5
a(I325
I301
tp2324
aF11.56
aa(lp2325
g8
a(I332
I85
tp2326
aF11.56
aa(lp2327
g115
a(I504
I299
tp2328
aF11.56
aa(lp2329
g2
a(I499
I80
tp2330
aF11.6
aa(lp2331
g5
a(I327
I302
tp2332
aF11.6
aa(lp2333
g8
a(I332
I85
tp2334
aF11.6
aa(lp2335
g115
a(I505
I299
tp2336
aF11.6
aa(lp2337
g2
a(I499
I80
tp2338
aF11.64
aa(lp2339
g5
a(I329
I302
tp2340
aF11.64
aa(lp2341
g8
a(I332
I85
tp2342
aF11.64
aa(lp2343
g115
a(I507
I300
tp2344
aF11.64
aa(lp2345
g2
a(I499
I80
tp2346
aF11.68
aa(lp2347
g5
a(I331
I302
tp2348
aF11.68
aa(lp2349
g8
a(I332
I85
tp2350
aF11.68
aa(lp2351
g115
a(I508
I299
tp2352
aF11.68
aa(lp2353
g2
a(I499
I80
tp2354
aF11.72
aa(lp2355
g5
a(I334
I302
tp2356
aF11.72
aa(lp2357
g8
a(I331
I85
tp2358
aF11.72
aa(lp2359
g115
a(I508
I299
tp2360
aF11.72
aa(lp2361
g2
a(I499
I80
tp2362
aF11.76
aa(lp2363
g5
a(I337
I302
tp2364
aF11.76
aa(lp2365
g8
a(I332
I85
tp2366
aF11.76
aa(lp2367
g115
a(I509
I300
tp2368
aF11.76
aa(lp2369
g2
a(I499
I80
tp2370
aF11.8
aa(lp2371
g5
a(I339
I302
tp2372
aF11.8
aa(lp2373
g8
a(I331
I85
tp2374
aF11.8
aa(lp2375
g115
a(I509
I299
tp2376
aF11.8
aa(lp2377
g2
a(I499
I80
tp2378
aF11.84
aa(lp2379
g5
a(I343
I302
tp2380
aF11.84
aa(lp2381
g8
a(I331
I85
tp2382
aF11.84
aa(lp2383
g115
a(I509
I299
tp2384
aF11.84
aa(lp2385
g2
a(I499
I80
tp2386
aF11.88
aa(lp2387
g5
a(I345
I302
tp2388
aF11.88
aa(lp2389
g8
a(I332
I85
tp2390
aF11.88
aa(lp2391
g115
a(I509
I300
tp2392
aF11.88
aa(lp2393
g2
a(I499
I80
tp2394
aF11.92
aa(lp2395
g5
a(I347
I302
tp2396
aF11.92
aa(lp2397
g8
a(I332
I85
tp2398
aF11.92
aa(lp2399
g115
a(I508
I299
tp2400
aF11.92
aa(lp2401
g2
a(I499
I80
tp2402
aF11.96
aa(lp2403
g5
a(I348
I302
tp2404
aF11.96
aa(lp2405
g8
a(I332
I85
tp2406
aF11.96
aa(lp2407
g115
a(I508
I300
tp2408
aF11.96
aa(lp2409
g2
a(I500
I80
tp2410
aF12.0
aa(lp2411
g5
a(I349
I302
tp2412
aF12.0
aa(lp2413
g8
a(I332
I85
tp2414
aF12.0
aa(lp2415
g115
a(I507
I300
tp2416
aF12.0
aa(lp2417
g2
a(I500
I80
tp2418
aF12.04
aa(lp2419
g5
a(I350
I302
tp2420
aF12.04
aa(lp2421
g8
a(I332
I85
tp2422
aF12.04
aa(lp2423
g115
a(I506
I300
tp2424
aF12.04
aa(lp2425
g2
a(I500
I80
tp2426
aF12.08
aa(lp2427
g5
a(I350
I302
tp2428
aF12.08
aa(lp2429
g8
a(I333
I85
tp2430
aF12.08
aa(lp2431
g115
a(I505
I300
tp2432
aF12.08
aa(lp2433
g2
a(I500
I80
tp2434
aF12.12
aa(lp2435
g5
a(I349
I302
tp2436
aF12.12
aa(lp2437
g8
a(I333
I85
tp2438
aF12.12
aa(lp2439
g115
a(I503
I300
tp2440
aF12.12
aa(lp2441
g2
a(I500
I80
tp2442
aF12.16
aa(lp2443
g5
a(I348
I302
tp2444
aF12.16
aa(lp2445
g8
a(I333
I85
tp2446
aF12.16
aa(lp2447
g115
a(I503
I300
tp2448
aF12.16
aa(lp2449
g2
a(I501
I80
tp2450
aF12.2
aa(lp2451
g5
a(I346
I302
tp2452
aF12.2
aa(lp2453
g8
a(I333
I85
tp2454
aF12.2
aa(lp2455
g115
a(I502
I300
tp2456
aF12.2
aa(lp2457
g2
a(I501
I80
tp2458
aF12.24
aa(lp2459
g5
a(I344
I302
tp2460
aF12.24
aa(lp2461
g8
a(I333
I85
tp2462
aF12.24
aa(lp2463
g115
a(I501
I300
tp2464
aF12.24
aa(lp2465
g2
a(I501
I80
tp2466
aF12.28
aa(lp2467
g5
a(I342
I302
tp2468
aF12.28
aa(lp2469
g8
a(I333
I85
tp2470
aF12.28
aa(lp2471
g115
a(I501
I300
tp2472
aF12.28
aa(lp2473
g2
a(I501
I80
tp2474
aF12.32
aa(lp2475
g5
a(I338
I301
tp2476
aF12.32
aa(lp2477
g8
a(I333
I85
tp2478
aF12.32
aa(lp2479
g115
a(I501
I300
tp2480
aF12.32
aa(lp2481
g2
a(I501
I80
tp2482
aF12.36
aa(lp2483
g5
a(I336
I302
tp2484
aF12.36
aa(lp2485
g8
a(I333
I85
tp2486
aF12.36
aa(lp2487
g115
a(I501
I300
tp2488
aF12.36
aa(lp2489
g2
a(I501
I80
tp2490
aF12.4
aa(lp2491
g5
a(I334
I302
tp2492
aF12.4
aa(lp2493
g8
a(I333
I85
tp2494
aF12.4
aa(lp2495
g115
a(I501
I300
tp2496
aF12.4
aa(lp2497
g2
a(I501
I80
tp2498
aF12.44
aa(lp2499
g5
a(I332
I301
tp2500
aF12.44
aa(lp2501
g8
a(I333
I85
tp2502
aF12.44
aa(lp2503
g115
a(I501
I299
tp2504
aF12.44
aa(lp2505
g2
a(I501
I80
tp2506
aF12.48
aa(lp2507
g5
a(I330
I301
tp2508
aF12.48
aa(lp2509
g8
a(I333
I85
tp2510
aF12.48
aa(lp2511
g115
a(I502
I300
tp2512
aF12.48
aa(lp2513
g2
a(I501
I80
tp2514
aF12.52
aa(lp2515
g5
a(I328
I301
tp2516
aF12.52
aa(lp2517
g8
a(I333
I85
tp2518
aF12.52
aa(lp2519
g115
a(I503
I300
tp2520
aF12.52
aa(lp2521
g2
a(I501
I80
tp2522
aF12.56
aa(lp2523
g5
a(I328
I301
tp2524
aF12.56
aa(lp2525
g8
a(I333
I85
tp2526
aF12.56
aa(lp2527
g115
a(I504
I300
tp2528
aF12.56
aa(lp2529
g2
a(I501
I80
tp2530
aF12.6
aa(lp2531
g5
a(I327
I301
tp2532
aF12.6
aa(lp2533
g8
a(I333
I85
tp2534
aF12.6
aa(lp2535
g115
a(I505
I300
tp2536
aF12.6
aa(lp2537
g2
a(I500
I80
tp2538
aF12.64
aa(lp2539
g5
a(I328
I301
tp2540
aF12.64
aa(lp2541
g8
a(I333
I85
tp2542
aF12.64
aa(lp2543
g115
a(I506
I299
tp2544
aF12.64
aa(lp2545
g2
a(I500
I80
tp2546
aF12.68
aa(lp2547
g5
a(I328
I302
tp2548
aF12.68
aa(lp2549
g8
a(I333
I85
tp2550
aF12.68
aa(lp2551
g115
a(I507
I299
tp2552
aF12.68
aa(lp2553
g2
a(I500
I80
tp2554
aF12.72
aa(lp2555
g5
a(I330
I302
tp2556
aF12.72
aa(lp2557
g8
a(I332
I85
tp2558
aF12.72
aa(lp2559
g115
a(I508
I299
tp2560
aF12.72
aa(lp2561
g2
a(I500
I80
tp2562
aF12.76
aa(lp2563
g5
a(I331
I302
tp2564
aF12.76
aa(lp2565
g8
a(I332
I85
tp2566
aF12.76
aa(lp2567
g115
a(I509
I299
tp2568
aF12.76
aa(lp2569
g2
a(I500
I80
tp2570
aF12.8
aa(lp2571
g5
a(I332
I302
tp2572
aF12.8
aa(lp2573
g8
a(I332
I85
tp2574
aF12.8
aa(lp2575
g115
a(I509
I299
tp2576
aF12.8
aa(lp2577
g2
a(I500
I80
tp2578
aF12.84
aa(lp2579
g5
a(I335
I302
tp2580
aF12.84
aa(lp2581
g8
a(I332
I85
tp2582
aF12.84
aa(lp2583
g115
a(I510
I300
tp2584
aF12.84
aa(lp2585
g2
a(I500
I80
tp2586
aF12.88
aa(lp2587
g5
a(I337
I302
tp2588
aF12.88
aa(lp2589
g8
a(I332
I85
tp2590
aF12.88
aa(lp2591
g115
a(I510
I299
tp2592
aF12.88
aa(lp2593
g2
a(I500
I80
tp2594
aF12.92
aa(lp2595
g5
a(I340
I302
tp2596
aF12.92
aa(lp2597
g8
a(I332
I85
tp2598
aF12.92
aa(lp2599
g115
a(I510
I299
tp2600
aF12.92
aa(lp2601
g2
a(I500
I80
tp2602
aF12.96
aa(lp2603
g5
a(I342
I302
tp2604
aF12.96
aa(lp2605
g8
a(I332
I85
tp2606
aF12.96
aa(lp2607
g115
a(I509
I299
tp2608
aF12.96
aa(lp2609
g2
a(I500
I80
tp2610
aF13.0
aa(lp2611
g5
a(I344
I302
tp2612
aF13.0
aa(lp2613
g8
a(I332
I85
tp2614
aF13.0
aa(lp2615
g115
a(I509
I300
tp2616
aF13.0
aa(lp2617
g2
a(I500
I80
tp2618
aF13.04
aa(lp2619
g5
a(I346
I302
tp2620
aF13.04
aa(lp2621
g8
a(I332
I85
tp2622
aF13.04
aa(lp2623
g115
a(I508
I300
tp2624
aF13.04
aa(lp2625
g2
a(I500
I80
tp2626
aF13.08
aa(lp2627
g5
a(I347
I302
tp2628
aF13.08
aa(lp2629
g8
a(I332
I85
tp2630
aF13.08
aa(lp2631
g115
a(I507
I299
tp2632
aF13.08
aa(lp2633
g2
a(I500
I80
tp2634
aF13.12
aa(lp2635
g5
a(I348
I302
tp2636
aF13.12
aa(lp2637
g8
a(I332
I85
tp2638
aF13.12
aa(lp2639
g115
a(I505
I299
tp2640
aF13.12
aa(lp2641
g2
a(I500
I80
tp2642
aF13.16
aa(lp2643
g5
a(I348
I302
tp2644
aF13.16
aa(lp2645
g8
a(I333
I85
tp2646
aF13.16
aa(lp2647
g115
a(I504
I299
tp2648
aF13.16
aa(lp2649
g2
a(I500
I80
tp2650
aF13.2
aa(lp2651
g5
a(I348
I302
tp2652
aF13.2
aa(lp2653
g8
a(I333
I85
tp2654
aF13.2
aa(lp2655
g115
a(I503
I299
tp2656
aF13.2
aa(lp2657
g2
a(I500
I80
tp2658
aF13.24
aa(lp2659
g5
a(I347
I302
tp2660
aF13.24
aa(lp2661
g8
a(I333
I85
tp2662
aF13.24
aa(lp2663
g115
a(I502
I299
tp2664
aF13.24
aa(lp2665
g2
a(I500
I80
tp2666
aF13.28
aa(lp2667
g5
a(I346
I302
tp2668
aF13.28
aa(lp2669
g8
a(I333
I85
tp2670
aF13.28
aa(lp2671
g115
a(I501
I299
tp2672
aF13.28
aa(lp2673
g2
a(I501
I80
tp2674
aF13.32
aa(lp2675
g5
a(I345
I302
tp2676
aF13.32
aa(lp2677
g8
a(I333
I85
tp2678
aF13.32
aa(lp2679
g115
a(I501
I300
tp2680
aF13.32
aa(lp2681
g2
a(I501
I80
tp2682
aF13.36
aa(lp2683
g5
a(I343
I302
tp2684
aF13.36
aa(lp2685
g8
a(I333
I85
tp2686
aF13.36
aa(lp2687
g115
a(I500
I299
tp2688
aF13.36
aa(lp2689
g2
a(I501
I80
tp2690
aF13.4
aa(lp2691
g5
a(I342
I302
tp2692
aF13.4
aa(lp2693
g8
a(I333
I85
tp2694
aF13.4
aa(lp2695
g115
a(I500
I299
tp2696
aF13.4
aa(lp2697
g2
a(I501
I80
tp2698
aF13.44
aa(lp2699
g5
a(I339
I302
tp2700
aF13.44
aa(lp2701
g8
a(I333
I85
tp2702
aF13.44
aa(lp2703
g115
a(I500
I299
tp2704
aF13.44
aa(lp2705
g2
a(I501
I80
tp2706
aF13.48
aa(lp2707
g5
a(I337
I302
tp2708
aF13.48
aa(lp2709
g8
a(I333
I85
tp2710
aF13.48
aa(lp2711
g115
a(I500
I299
tp2712
aF13.48
aa(lp2713
g2
a(I501
I80
tp2714
aF13.52
aa(lp2715
g5
a(I336
I301
tp2716
aF13.52
aa(lp2717
g8
a(I333
I85
tp2718
aF13.52
aa(lp2719
g115
a(I501
I300
tp2720
aF13.52
aa(lp2721
g2
a(I501
I80
tp2722
aF13.56
aa(lp2723
g5
a(I333
I302
tp2724
aF13.56
aa(lp2725
g8
a(I333
I85
tp2726
aF13.56
aa(lp2727
g115
a(I502
I300
tp2728
aF13.56
aa(lp2729
g2
a(I501
I80
tp2730
aF13.6
aa(lp2731
g5
a(I332
I302
tp2732
aF13.6
aa(lp2733
g8
a(I333
I85
tp2734
aF13.6
aa(lp2735
g115
a(I502
I299
tp2736
aF13.6
aa(lp2737
g2
a(I501
I80
tp2738
aF13.64
aa(lp2739
g5
a(I330
I301
tp2740
aF13.64
aa(lp2741
g8
a(I333
I85
tp2742
aF13.64
aa(lp2743
g115
a(I504
I300
tp2744
aF13.64
aa(lp2745
g2
a(I500
I80
tp2746
aF13.68
aa(lp2747
g5
a(I330
I302
tp2748
aF13.68
aa(lp2749
g8
a(I333
I85
tp2750
aF13.68
aa(lp2751
g115
a(I505
I300
tp2752
aF13.68
aa(lp2753
g2
a(I500
I80
tp2754
aF13.72
aa(lp2755
g5
a(I329
I302
tp2756
aF13.72
aa(lp2757
g8
a(I333
I85
tp2758
aF13.72
aa(lp2759
g115
a(I506
I300
tp2760
aF13.72
aa(lp2761
g2
a(I500
I80
tp2762
aF13.76
aa(lp2763
g5
a(I329
I302
tp2764
aF13.76
aa(lp2765
g8
a(I333
I85
tp2766
aF13.76
aa(lp2767
g115
a(I507
I299
tp2768
aF13.76
aa(lp2769
g2
a(I500
I80
tp2770
aF13.8
aa(lp2771
g5
a(I329
I302
tp2772
aF13.8
aa(lp2773
g8
a(I332
I85
tp2774
aF13.8
aa(lp2775
g115
a(I508
I299
tp2776
aF13.8
aa(lp2777
g2
a(I500
I80
tp2778
aF13.84
aa(lp2779
g5
a(I330
I302
tp2780
aF13.84
aa(lp2781
g8
a(I332
I85
tp2782
aF13.84
aa(lp2783
g115
a(I509
I299
tp2784
aF13.84
aa(lp2785
g2
a(I500
I80
tp2786
aF13.88
aa(lp2787
g5
a(I331
I302
tp2788
aF13.88
aa(lp2789
g8
a(I332
I85
tp2790
aF13.88
aa(lp2791
g115
a(I510
I300
tp2792
aF13.88
aa(lp2793
g2
a(I500
I80
tp2794
aF13.92
aa(lp2795
g5
a(I332
I302
tp2796
aF13.92
aa(lp2797
g8
a(I332
I85
tp2798
aF13.92
aa(lp2799
g115
a(I510
I299
tp2800
aF13.92
aa(lp2801
g2
a(I500
I80
tp2802
aF13.96
aa(lp2803
g5
a(I335
I302
tp2804
aF13.96
aa(lp2805
g8
a(I332
I85
tp2806
aF13.96
aa(lp2807
g115
a(I510
I299
tp2808
aF13.96
aa(lp2809
g2
a(I500
I80
tp2810
aF14.0
aa(lp2811
g5
a(I336
I302
tp2812
aF14.0
aa(lp2813
g8
a(I332
I85
tp2814
aF14.0
aa(lp2815
g115
a(I510
I299
tp2816
aF14.0
aa(lp2817
g2
a(I500
I80
tp2818
aF14.04
aa(lp2819
g5
a(I339
I302
tp2820
aF14.04
aa(lp2821
g8
a(I332
I85
tp2822
aF14.04
aa(lp2823
g115
a(I510
I299
tp2824
aF14.04
aa(lp2825
g2
a(I500
I80
tp2826
aF14.08
aa(lp2827
g5
a(I340
I302
tp2828
aF14.08
aa(lp2829
g8
a(I332
I85
tp2830
aF14.08
aa(lp2831
g115
a(I509
I299
tp2832
aF14.08
aa(lp2833
g2
a(I500
I80
tp2834
aF14.12
aa(lp2835
g5
a(I342
I302
tp2836
aF14.12
aa(lp2837
g8
a(I333
I85
tp2838
aF14.12
aa(lp2839
g115
a(I509
I299
tp2840
aF14.12
aa(lp2841
g2
a(I500
I80
tp2842
aF14.16
aa(lp2843
g5
a(I344
I302
tp2844
aF14.16
aa(lp2845
g8
a(I333
I85
tp2846
aF14.16
aa(lp2847
g115
a(I507
I299
tp2848
aF14.16
aa(lp2849
g2
a(I500
I80
tp2850
aF14.2
aa(lp2851
g5
a(I345
I302
tp2852
aF14.2
aa(lp2853
g8
a(I333
I85
tp2854
aF14.2
aa(lp2855
g115
a(I506
I299
tp2856
aF14.2
aa(lp2857
g2
a(I500
I80
tp2858
aF14.24
aa(lp2859
g5
a(I346
I302
tp2860
aF14.24
aa(lp2861
g8
a(I333
I85
tp2862
aF14.24
aa(lp2863
g115
a(I505
I300
tp2864
aF14.24
aa(lp2865
g2
a(I500
I80
tp2866
aF14.28
aa(lp2867
g5
a(I346
I302
tp2868
aF14.28
aa(lp2869
g8
a(I333
I85
tp2870
aF14.28
aa(lp2871
g115
a(I504
I300
tp2872
aF14.28
aa(lp2873
g2
a(I501
I80
tp2874
aF14.32
aa(lp2875
g5
a(I347
I302
tp2876
aF14.32
aa(lp2877
g8
a(I333
I85
tp2878
aF14.32
aa(lp2879
g115
a(I503
I300
tp2880
aF14.32
aa(lp2881
g2
a(I501
I80
tp2882
aF14.36
aa(lp2883
g5
a(I346
I302
tp2884
aF14.36
aa(lp2885
g8
a(I333
I85
tp2886
aF14.36
aa(lp2887
g115
a(I502
I300
tp2888
aF14.36
aa(lp2889
g2
a(I501
I80
tp2890
aF14.4
aa(lp2891
g5
a(I346
I302
tp2892
aF14.4
aa(lp2893
g8
a(I333
I85
tp2894
aF14.4
aa(lp2895
g115
a(I501
I300
tp2896
aF14.4
aa(lp2897
g2
a(I501
I80
tp2898
aF14.44
aa(lp2899
g5
a(I345
I302
tp2900
aF14.44
aa(lp2901
g8
a(I333
I85
tp2902
aF14.44
aa(lp2903
g115
a(I500
I299
tp2904
aF14.44
aa(lp2905
g2
a(I501
I80
tp2906
aF14.48
aa(lp2907
g5
a(I344
I302
tp2908
aF14.48
aa(lp2909
g8
a(I333
I85
tp2910
aF14.48
aa(lp2911
g115
a(I500
I300
tp2912
aF14.48
aa(lp2913
g2
a(I501
I80
tp2914
aF14.52
aa(lp2915
g5
a(I343
I302
tp2916
aF14.52
aa(lp2917
g8
a(I333
I85
tp2918
aF14.52
aa(lp2919
g115
a(I500
I300
tp2920
aF14.52
aa(lp2921
g2
a(I501
I80
tp2922
aF14.56
aa(lp2923
g5
a(I341
I302
tp2924
aF14.56
aa(lp2925
g8
a(I333
I85
tp2926
aF14.56
aa(lp2927
g115
a(I500
I299
tp2928
aF14.56
aa(lp2929
g2
a(I501
I80
tp2930
aF14.6
aa(lp2931
g5
a(I339
I301
tp2932
aF14.6
aa(lp2933
g8
a(I333
I85
tp2934
aF14.6
aa(lp2935
g115
a(I500
I299
tp2936
aF14.6
aa(lp2937
g2
a(I501
I80
tp2938
aF14.64
aa(lp2939
g5
a(I337
I301
tp2940
aF14.64
aa(lp2941
g8
a(I333
I85
tp2942
aF14.64
aa(lp2943
g115
a(I501
I299
tp2944
aF14.64
aa(lp2945
g2
a(I501
I80
tp2946
aF14.68
aa(lp2947
g5
a(I336
I302
tp2948
aF14.68
aa(lp2949
g8
a(I333
I85
tp2950
aF14.68
aa(lp2951
g115
a(I502
I299
tp2952
aF14.68
aa(lp2953
g2
a(I501
I80
tp2954
aF14.72
aa(lp2955
g5
a(I334
I301
tp2956
aF14.72
aa(lp2957
g8
a(I333
I85
tp2958
aF14.72
aa(lp2959
g115
a(I503
I299
tp2960
aF14.72
aa(lp2961
g2
a(I501
I80
tp2962
aF14.76
aa(lp2963
g5
a(I333
I301
tp2964
aF14.76
aa(lp2965
g8
a(I333
I85
tp2966
aF14.76
aa(lp2967
g115
a(I505
I300
tp2968
aF14.76
aa(lp2969
g2
a(I501
I80
tp2970
aF14.8
aa(lp2971
g5
a(I332
I301
tp2972
aF14.8
aa(lp2973
g8
a(I333
I85
tp2974
aF14.8
aa(lp2975
g115
a(I506
I300
tp2976
aF14.8
aa(lp2977
g2
a(I501
I80
tp2978
aF14.84
aa(lp2979
g5
a(I331
I301
tp2980
aF14.84
aa(lp2981
g8
a(I333
I85
tp2982
aF14.84
aa(lp2983
g115
a(I507
I299
tp2984
aF14.84
aa(lp2985
g2
a(I500
I80
tp2986
aF14.88
aa(lp2987
g5
a(I331
I301
tp2988
aF14.88
aa(lp2989
g8
a(I333
I85
tp2990
aF14.88
aa(lp2991
g115
a(I508
I299
tp2992
aF14.88
aa(lp2993
g2
a(I500
I80
tp2994
aF14.92
aa(lp2995
g5
a(I331
I301
tp2996
aF14.92
aa(lp2997
g8
a(I333
I85
tp2998
aF14.92
aa(lp2999
g115
a(I509
I299
tp3000
aF14.92
aa(lp3001
g2
a(I500
I80
tp3002
aF14.96
aa(lp3003
g5
a(I331
I302
tp3004
aF14.96
aa(lp3005
g8
a(I333
I85
tp3006
aF14.96
aa(lp3007
g115
a(I510
I299
tp3008
aF14.96
aa(lp3009
g2
a(I500
I80
tp3010
aF15.0
aa(lp3011
g5
a(I332
I302
tp3012
aF15.0
aa(lp3013
g8
a(I333
I85
tp3014
aF15.0
aa(lp3015
g115
a(I510
I299
tp3016
aF15.0
aa(lp3017
g2
a(I500
I80
tp3018
aF15.04
aa(lp3019
g5
a(I333
I302
tp3020
aF15.04
aa(lp3021
g8
a(I333
I85
tp3022
aF15.04
aa(lp3023
g115
a(I511
I299
tp3024
aF15.04
aa(lp3025
g2
a(I500
I80
tp3026
aF15.08
aa(lp3027
g5
a(I334
I302
tp3028
aF15.08
aa(lp3029
g8
a(I333
I85
tp3030
aF15.08
aa(lp3031
g115
a(I511
I300
tp3032
aF15.08
aa(lp3033
g2
a(I500
I80
tp3034
aF15.12
aa(lp3035
g5
a(I336
I302
tp3036
aF15.12
aa(lp3037
g8
a(I333
I85
tp3038
aF15.12
aa(lp3039
g115
a(I511
I299
tp3040
aF15.12
aa(lp3041
g2
a(I500
I80
tp3042
aF15.16
aa(lp3043
g5
a(I337
I302
tp3044
aF15.16
aa(lp3045
g8
a(I333
I85
tp3046
aF15.16
aa(lp3047
g115
a(I510
I299
tp3048
aF15.16
aa(lp3049
g2
a(I500
I80
tp3050
aF15.2
aa(lp3051
g5
a(I339
I302
tp3052
aF15.2
aa(lp3053
g8
a(I333
I85
tp3054
aF15.2
aa(lp3055
g115
a(I509
I299
tp3056
aF15.2
aa(lp3057
g2
a(I501
I80
tp3058
aF15.24
aa(lp3059
g5
a(I341
I302
tp3060
aF15.24
aa(lp3061
g8
a(I333
I85
tp3062
aF15.24
aa(lp3063
g115
a(I508
I299
tp3064
aF15.24
aa(lp3065
g2
a(I501
I80
tp3066
aF15.28
aa(lp3067
g5
a(I342
I302
tp3068
aF15.28
aa(lp3069
g8
a(I333
I85
tp3070
aF15.28
aa(lp3071
g115
a(I507
I299
tp3072
aF15.28
aa(lp3073
g2
a(I501
I80
tp3074
aF15.32
aa(lp3075
g5
a(I343
I302
tp3076
aF15.32
aa(lp3077
g8
a(I333
I85
tp3078
aF15.32
aa(lp3079
g115
a(I506
I299
tp3080
aF15.32
aa(lp3081
g2
a(I501
I80
tp3082
aF15.36
aa(lp3083
g5
a(I344
I302
tp3084
aF15.36
aa(lp3085
g8
a(I333
I85
tp3086
aF15.36
aa(lp3087
g115
a(I505
I300
tp3088
aF15.36
aa(lp3089
g2
a(I501
I80
tp3090
aF15.4
aa(lp3091
g5
a(I345
I302
tp3092
aF15.4
aa(lp3093
g8
a(I333
I85
tp3094
aF15.4
aa(lp3095
g115
a(I504
I300
tp3096
aF15.4
aa(lp3097
g2
a(I501
I80
tp3098
aF15.44
aa(lp3099
g5
a(I345
I302
tp3100
aF15.44
aa(lp3101
g8
a(I333
I85
tp3102
aF15.44
aa(lp3103
g115
a(I502
I299
tp3104
aF15.44
aa(lp3105
g2
a(I501
I80
tp3106
aF15.48
aa(lp3107
g5
a(I346
I302
tp3108
aF15.48
aa(lp3109
g8
a(I333
I85
tp3110
aF15.48
aa(lp3111
g115
a(I502
I300
tp3112
aF15.48
aa(lp3113
g2
a(I501
I80
tp3114
aF15.52
aa(lp3115
g5
a(I346
I302
tp3116
aF15.52
aa(lp3117
g8
a(I333
I85
tp3118
aF15.52
aa(lp3119
g115
a(I501
I299
tp3120
aF15.52
aa(lp3121
g2
a(I501
I80
tp3122
aF15.56
aa(lp3123
g5
a(I345
I302
tp3124
aF15.56
aa(lp3125
g8
a(I333
I85
tp3126
aF15.56
aa(lp3127
g115
a(I500
I299
tp3128
aF15.56
aa(lp3129
g2
a(I501
I80
tp3130
aF15.6
aa(lp3131
g5
a(I345
I302
tp3132
aF15.6
aa(lp3133
g8
a(I333
I85
tp3134
aF15.6
aa(lp3135
g115
a(I500
I299
tp3136
aF15.6
aa(lp3137
g2
a(I501
I80
tp3138
aF15.64
aa(lp3139
g5
a(I343
I302
tp3140
aF15.64
aa(lp3141
g8
a(I333
I85
tp3142
aF15.64
aa(lp3143
g115
a(I500
I299
tp3144
aF15.64
aa(lp3145
g2
a(I501
I80
tp3146
aF15.68
aa(lp3147
g5
a(I342
I302
tp3148
aF15.68
aa(lp3149
g8
a(I333
I85
tp3150
aF15.68
aa(lp3151
g115
a(I501
I300
tp3152
aF15.68
aa(lp3153
g2
a(I501
I80
tp3154
aF15.72
aa(lp3155
g5
a(I341
I302
tp3156
aF15.72
aa(lp3157
g8
a(I333
I85
tp3158
aF15.72
aa(lp3159
g115
a(I501
I300
tp3160
aF15.72
aa(lp3161
g2
a(I501
I80
tp3162
aF15.76
aa(lp3163
g5
a(I339
I302
tp3164
aF15.76
aa(lp3165
g8
a(I333
I85
tp3166
aF15.76
aa(lp3167
g115
a(I502
I300
tp3168
aF15.76
aa(lp3169
g2
a(I501
I80
tp3170
aF15.8
aa(lp3171
g5
a(I338
I302
tp3172
aF15.8
aa(lp3173
g8
a(I333
I85
tp3174
aF15.8
aa(lp3175
g115
a(I503
I300
tp3176
aF15.8
aa(lp3177
g2
a(I501
I80
tp3178
aF15.84
aa(lp3179
g5
a(I336
I301
tp3180
aF15.84
aa(lp3181
g8
a(I333
I85
tp3182
aF15.84
aa(lp3183
g115
a(I504
I300
tp3184
aF15.84
aa(lp3185
g2
a(I501
I80
tp3186
aF15.88
aa(lp3187
g5
a(I335
I302
tp3188
aF15.88
aa(lp3189
g8
a(I333
I85
tp3190
aF15.88
aa(lp3191
g115
a(I505
I300
tp3192
aF15.88
aa(lp3193
g2
a(I501
I80
tp3194
aF15.92
aa(lp3195
g5
a(I334
I302
tp3196
aF15.92
aa(lp3197
g8
a(I333
I85
tp3198
aF15.92
aa(lp3199
g115
a(I506
I300
tp3200
aF15.92
aa(lp3201
g2
a(I501
I80
tp3202
aF15.96
aa(lp3203
g5
a(I332
I301
tp3204
aF15.96
aa(lp3205
g8
a(I333
I85
tp3206
aF15.96
aa(lp3207
g115
a(I507
I300
tp3208
aF15.96
aa(lp3209
g2
a(I501
I80
tp3210
aF16.0
aa(lp3211
g5
a(I332
I302
tp3212
aF16.0
aa(lp3213
g8
a(I333
I85
tp3214
aF16.0
aa(lp3215
g115
a(I508
I300
tp3216
aF16.0
aa(lp3217
g2
a(I501
I80
tp3218
aF16.04
aa(lp3219
g5
a(I331
I302
tp3220
aF16.04
aa(lp3221
g8
a(I333
I85
tp3222
aF16.04
aa(lp3223
g115
a(I509
I299
tp3224
aF16.04
aa(lp3225
g2
a(I501
I80
tp3226
aF16.08
aa(lp3227
g5
a(I331
I302
tp3228
aF16.08
aa(lp3229
g8
a(I333
I85
tp3230
aF16.08
aa(lp3231
g115
a(I510
I299
tp3232
aF16.08
aa(lp3233
g2
a(I501
I80
tp3234
aF16.12
aa(lp3235
g5
a(I332
I302
tp3236
aF16.12
aa(lp3237
g8
a(I333
I85
tp3238
aF16.12
aa(lp3239
g115
a(I510
I300
tp3240
aF16.12
aa(lp3241
g2
a(I501
I80
tp3242
aF16.16
aa(lp3243
g5
a(I332
I302
tp3244
aF16.16
aa(lp3245
g8
a(I333
I85
tp3246
aF16.16
aa(lp3247
g115
a(I510
I299
tp3248
aF16.16
aa(lp3249
g2
a(I501
I80
tp3250
aF16.2
aa(lp3251
g5
a(I333
I302
tp3252
aF16.2
aa(lp3253
g8
a(I333
I85
tp3254
aF16.2
aa(lp3255
g115
a(I510
I299
tp3256
aF16.2
aa(lp3257
g2
a(I501
I80
tp3258
aF16.24
aa(lp3259
g5
a(I335
I302
tp3260
aF16.24
aa(lp3261
g8
a(I333
I85
tp3262
aF16.24
aa(lp3263
g115
a(I510
I299
tp3264
aF16.24
aa(lp3265
g2
a(I501
I80
tp3266
aF16.28
aa(lp3267
g5
a(I336
I302
tp3268
aF16.28
aa(lp3269
g8
a(I333
I85
tp3270
aF16.28
aa(lp3271
g115
a(I510
I300
tp3272
aF16.28
aa(lp3273
g2
a(I501
I80
tp3274
aF16.32
aa(lp3275
g5
a(I337
I302
tp3276
aF16.32
aa(lp3277
g8
a(I333
I85
tp3278
aF16.32
aa(lp3279
g115
a(I509
I299
tp3280
aF16.32
aa(lp3281
g2
a(I501
I80
tp3282
aF16.36
aa(lp3283
g5
a(I339
I302
tp3284
aF16.36
aa(lp3285
g8
a(I333
I85
tp3286
aF16.36
aa(lp3287
g115
a(I508
I299
tp3288
aF16.36
aa(lp3289
g2
a(I501
I80
tp3290
aF16.4
aa(lp3291
g5
a(I340
I302
tp3292
aF16.4
aa(lp3293
g8
a(I333
I85
tp3294
aF16.4
aa(lp3295
g115
a(I507
I299
tp3296
aF16.4
aa(lp3297
g2
a(I501
I80
tp3298
aF16.44
aa(lp3299
g5
a(I342
I302
tp3300
aF16.44
aa(lp3301
g8
a(I333
I85
tp3302
aF16.44
aa(lp3303
g115
a(I506
I300
tp3304
aF16.44
aa(lp3305
g2
a(I501
I80
tp3306
aF16.48
aa(lp3307
g5
a(I343
I302
tp3308
aF16.48
aa(lp3309
g8
a(I333
I85
tp3310
aF16.48
aa(lp3311
g115
a(I505
I299
tp3312
aF16.48
aa(lp3313
g2
a(I501
I80
tp3314
aF16.52
aa(lp3315
g5
a(I344
I302
tp3316
aF16.52
aa(lp3317
g8
a(I333
I85
tp3318
aF16.52
aa(lp3319
g115
a(I504
I299
tp3320
aF16.52
aa(lp3321
g2
a(I501
I80
tp3322
aF16.56
aa(lp3323
g5
a(I345
I302
tp3324
aF16.56
aa(lp3325
g8
a(I333
I85
tp3326
aF16.56
aa(lp3327
g115
a(I503
I299
tp3328
aF16.56
aa(lp3329
g2
a(I501
I80
tp3330
aF16.6
aa(lp3331
g5
a(I345
I302
tp3332
aF16.6
aa(lp3333
g8
a(I333
I85
tp3334
aF16.6
aa(lp3335
g115
a(I502
I299
tp3336
aF16.6
aa(lp3337
g2
a(I501
I80
tp3338
aF16.64
aa(lp3339
g5
a(I346
I302
tp3340
aF16.64
aa(lp3341
g8
a(I333
I85
tp3342
aF16.64
aa(lp3343
g115
a(I501
I299
tp3344
aF16.64
aa(lp3345
g2
a(I501
I80
tp3346
aF16.68
aa(lp3347
g5
a(I345
I302
tp3348
aF16.68
aa(lp3349
g8
a(I333
I85
tp3350
aF16.68
aa(lp3351
g115
a(I501
I300
tp3352
aF16.68
aa(lp3353
g2
a(I501
I80
tp3354
aF16.72
aa(lp3355
g5
a(I345
I302
tp3356
aF16.72
aa(lp3357
g8
a(I333
I85
tp3358
aF16.72
aa(lp3359
g115
a(I501
I300
tp3360
aF16.72
aa(lp3361
g2
a(I501
I80
tp3362
aF16.76
aa(lp3363
g5
a(I344
I302
tp3364
aF16.76
aa(lp3365
g8
a(I333
I85
tp3366
aF16.76
aa(lp3367
g115
a(I501
I300
tp3368
aF16.76
aa(lp3369
g2
a(I501
I80
tp3370
aF16.8
aa(lp3371
g5
a(I343
I302
tp3372
aF16.8
aa(lp3373
g8
a(I333
I85
tp3374
aF16.8
aa(lp3375
g115
a(I501
I300
tp3376
aF16.8
aa(lp3377
g2
a(I501
I80
tp3378
aF16.84
aa(lp3379
g5
a(I342
I302
tp3380
aF16.84
aa(lp3381
g8
a(I333
I85
tp3382
aF16.84
aa(lp3383
g115
a(I501
I300
tp3384
aF16.84
aa(lp3385
g2
a(I501
I80
tp3386
aF16.88
aa(lp3387
g5
a(I340
I302
tp3388
aF16.88
aa(lp3389
g8
a(I333
I85
tp3390
aF16.88
aa(lp3391
g115
a(I502
I300
tp3392
aF16.88
aa(lp3393
g2
a(I501
I80
tp3394
aF16.92
aa(lp3395
g5
a(I339
I301
tp3396
aF16.92
aa(lp3397
g8
a(I333
I85
tp3398
aF16.92
aa(lp3399
g115
a(I502
I299
tp3400
aF16.92
aa(lp3401
g2
a(I501
I80
tp3402
aF16.96
aa(lp3403
g5
a(I337
I302
tp3404
aF16.96
aa(lp3405
g8
a(I333
I85
tp3406
aF16.96
aa(lp3407
g115
a(I503
I299
tp3408
aF16.96
aa(lp3409
g2
a(I501
I80
tp3410
aF17.0
aa(lp3411
g5
a(I336
I302
tp3412
aF17.0
aa(lp3413
g8
a(I333
I85
tp3414
aF17.0
aa(lp3415
g115
a(I504
I300
tp3416
aF17.0
aa(lp3417
g2
a(I501
I80
tp3418
aF17.04
aa(lp3419
g5
a(I334
I302
tp3420
aF17.04
aa(lp3421
g8
a(I333
I85
tp3422
aF17.04
aa(lp3423
g115
a(I505
I300
tp3424
aF17.04
aa(lp3425
g2
a(I501
I80
tp3426
aF17.08
aa(lp3427
g5
a(I333
I302
tp3428
aF17.08
aa(lp3429
g8
a(I333
I85
tp3430
aF17.08
aa(lp3431
g115
a(I506
I299
tp3432
aF17.08
aa(lp3433
g2
a(I501
I80
tp3434
aF17.12
aa(lp3435
g5
a(I332
I301
tp3436
aF17.12
aa(lp3437
g8
a(I333
I85
tp3438
aF17.12
aa(lp3439
g115
a(I507
I299
tp3440
aF17.12
aa(lp3441
g2
a(I501
I80
tp3442
aF17.16
aa(lp3443
g5
a(I332
I302
tp3444
aF17.16
aa(lp3445
g8
a(I333
I85
tp3446
aF17.16
aa(lp3447
g115
a(I508
I299
tp3448
aF17.16
aa(lp3449
g2
a(I501
I80
tp3450
aF17.2
aa(lp3451
g5
a(I331
I302
tp3452
aF17.2
aa(lp3453
g8
a(I333
I85
tp3454
aF17.2
aa(lp3455
g115
a(I509
I299
tp3456
aF17.2
aa(lp3457
g2
a(I501
I80
tp3458
aF17.24
aa(lp3459
g5
a(I331
I302
tp3460
aF17.24
aa(lp3461
g8
a(I333
I85
tp3462
aF17.24
aa(lp3463
g115
a(I509
I299
tp3464
aF17.24
aa(lp3465
g2
a(I501
I80
tp3466
aF17.28
aa(lp3467
g5
a(I332
I302
tp3468
aF17.28
aa(lp3469
g8
a(I333
I85
tp3470
aF17.28
aa(lp3471
g115
a(I510
I299
tp3472
aF17.28
aa(lp3473
g2
a(I501
I80
tp3474
aF17.32
aa(lp3475
g5
a(I332
I302
tp3476
aF17.32
aa(lp3477
g8
a(I333
I85
tp3478
aF17.32
aa(lp3479
g115
a(I510
I299
tp3480
aF17.32
aa(lp3481
g2
a(I501
I80
tp3482
aF17.36
aa(lp3483
g5
a(I334
I302
tp3484
aF17.36
aa(lp3485
g8
a(I333
I85
tp3486
aF17.36
aa(lp3487
g115
a(I510
I299
tp3488
aF17.36
aa(lp3489
g2
a(I501
I80
tp3490
aF17.4
aa(lp3491
g5
a(I335
I302
tp3492
aF17.4
aa(lp3493
g8
a(I333
I85
tp3494
aF17.4
aa(lp3495
g115
a(I510
I300
tp3496
aF17.4
aa(lp3497
g2
a(I501
I80
tp3498
aF17.44
aa(lp3499
g5
a(I336
I302
tp3500
aF17.44
aa(lp3501
g8
a(I333
I85
tp3502
aF17.44
aa(lp3503
g115
a(I509
I299
tp3504
aF17.44
aa(lp3505
g2
a(I501
I80
tp3506
aF17.48
aa(lp3507
g5
a(I338
I302
tp3508
aF17.48
aa(lp3509
g8
a(I333
I85
tp3510
aF17.48
aa(lp3511
g115
a(I509
I300
tp3512
aF17.48
aa(lp3513
g2
a(I501
I80
tp3514
aF17.52
aa(lp3515
g5
a(I339
I302
tp3516
aF17.52
aa(lp3517
g8
a(I333
I85
tp3518
aF17.52
aa(lp3519
g115
a(I508
I300
tp3520
aF17.52
aa(lp3521
g2
a(I501
I80
tp3522
aF17.56
aa(lp3523
g5
a(I341
I302
tp3524
aF17.56
aa(lp3525
g8
a(I333
I85
tp3526
aF17.56
aa(lp3527
g115
a(I507
I300
tp3528
aF17.56
aa(lp3529
g2
a(I501
I80
tp3530
aF17.6
aa(lp3531
g5
a(I342
I302
tp3532
aF17.6
aa(lp3533
g8
a(I333
I85
tp3534
aF17.6
aa(lp3535
g115
a(I506
I300
tp3536
aF17.6
aa(lp3537
g2
a(I501
I80
tp3538
aF17.64
aa(lp3539
g5
a(I343
I302
tp3540
aF17.64
aa(lp3541
g8
a(I333
I85
tp3542
aF17.64
aa(lp3543
g115
a(I505
I300
tp3544
aF17.64
aa(lp3545
g2
a(I501
I80
tp3546
aF17.68
aa(lp3547
g5
a(I344
I302
tp3548
aF17.68
aa(lp3549
g8
a(I333
I85
tp3550
aF17.68
aa(lp3551
g115
a(I504
I300
tp3552
aF17.68
aa(lp3553
g2
a(I501
I80
tp3554
aF17.72
aa(lp3555
g5
a(I345
I302
tp3556
aF17.72
aa(lp3557
g8
a(I333
I85
tp3558
aF17.72
aa(lp3559
g115
a(I503
I300
tp3560
aF17.72
aa(lp3561
g2
a(I501
I80
tp3562
aF17.76
aa(lp3563
g5
a(I346
I302
tp3564
aF17.76
aa(lp3565
g8
a(I333
I85
tp3566
aF17.76
aa(lp3567
g115
a(I502
I300
tp3568
aF17.76
aa(lp3569
g2
a(I501
I80
tp3570
aF17.8
aa(lp3571
g5
a(I346
I302
tp3572
aF17.8
aa(lp3573
g8
a(I333
I85
tp3574
aF17.8
aa(lp3575
g115
a(I501
I299
tp3576
aF17.8
aa(lp3577
g2
a(I501
I80
tp3578
aF17.84
aa(lp3579
g5
a(I345
I302
tp3580
aF17.84
aa(lp3581
g8
a(I333
I85
tp3582
aF17.84
aa(lp3583
g115
a(I501
I299
tp3584
aF17.84
aa(lp3585
g2
a(I501
I80
tp3586
aF17.88
aa(lp3587
g5
a(I344
I302
tp3588
aF17.88
aa(lp3589
g8
a(I333
I85
tp3590
aF17.88
aa(lp3591
g115
a(I501
I300
tp3592
aF17.88
aa(lp3593
g2
a(I501
I80
tp3594
aF17.92
aa(lp3595
g5
a(I344
I302
tp3596
aF17.92
aa(lp3597
g8
a(I333
I85
tp3598
aF17.92
aa(lp3599
g115
a(I501
I300
tp3600
aF17.92
aa(lp3601
g2
a(I501
I80
tp3602
aF17.96
aa(lp3603
g5
a(I342
I302
tp3604
aF17.96
aa(lp3605
g8
a(I333
I85
tp3606
aF17.96
aa(lp3607
g115
a(I501
I300
tp3608
aF17.96
aa(lp3609
g2
a(I501
I80
tp3610
aF18.0
aa(lp3611
g5
a(I341
I302
tp3612
aF18.0
aa(lp3613
g8
a(I333
I85
tp3614
aF18.0
aa(lp3615
g115
a(I501
I299
tp3616
aF18.0
aa(lp3617
g2
a(I501
I80
tp3618
aF18.04
aa(lp3619
g5
a(I340
I302
tp3620
aF18.04
aa(lp3621
g8
a(I333
I85
tp3622
aF18.04
aa(lp3623
g115
a(I502
I300
tp3624
aF18.04
aa(lp3625
g2
a(I501
I80
tp3626
aF18.08
aa(lp3627
g5
a(I338
I302
tp3628
aF18.08
aa(lp3629
g8
a(I333
I85
tp3630
aF18.08
aa(lp3631
g115
a(I503
I300
tp3632
aF18.08
aa(lp3633
g2
a(I501
I80
tp3634
aF18.12
aa(lp3635
g5
a(I337
I302
tp3636
aF18.12
aa(lp3637
g8
a(I333
I85
tp3638
aF18.12
aa(lp3639
g115
a(I504
I300
tp3640
aF18.12
aa(lp3641
g2
a(I501
I80
tp3642
aF18.16
aa(lp3643
g5
a(I335
I301
tp3644
aF18.16
aa(lp3645
g8
a(I333
I85
tp3646
aF18.16
aa(lp3647
g115
a(I505
I300
tp3648
aF18.16
aa(lp3649
g2
a(I501
I80
tp3650
aF18.2
aa(lp3651
g5
a(I334
I301
tp3652
aF18.2
aa(lp3653
g8
a(I333
I85
tp3654
aF18.2
aa(lp3655
g115
a(I505
I299
tp3656
aF18.2
aa(lp3657
g2
a(I501
I80
tp3658
aF18.24
aa(lp3659
g5
a(I333
I302
tp3660
aF18.24
aa(lp3661
g8
a(I333
I85
tp3662
aF18.24
aa(lp3663
g115
a(I506
I299
tp3664
aF18.24
aa(lp3665
g2
a(I501
I80
tp3666
aF18.28
aa(lp3667
g5
a(I332
I302
tp3668
aF18.28
aa(lp3669
g8
a(I333
I85
tp3670
aF18.28
aa(lp3671
g115
a(I508
I300
tp3672
aF18.28
aa(lp3673
g2
a(I501
I80
tp3674
aF18.32
aa(lp3675
g5
a(I332
I302
tp3676
aF18.32
aa(lp3677
g8
a(I333
I85
tp3678
aF18.32
aa(lp3679
g115
a(I508
I299
tp3680
aF18.32
aa(lp3681
g2
a(I501
I80
tp3682
aF18.36
aa(lp3683
g5
a(I331
I302
tp3684
aF18.36
aa(lp3685
g8
a(I333
I85
tp3686
aF18.36
aa(lp3687
g115
a(I509
I299
tp3688
aF18.36
aa(lp3689
g2
a(I501
I80
tp3690
aF18.4
aa(lp3691
g5
a(I332
I302
tp3692
aF18.4
aa(lp3693
g8
a(I333
I85
tp3694
aF18.4
aa(lp3695
g115
a(I509
I299
tp3696
aF18.4
aa(lp3697
g2
a(I501
I80
tp3698
aF18.44
aa(lp3699
g5
a(I332
I302
tp3700
aF18.44
aa(lp3701
g8
a(I333
I85
tp3702
aF18.44
aa(lp3703
g115
a(I510
I300
tp3704
aF18.44
aa(lp3705
g2
a(I501
I80
tp3706
aF18.48
aa(lp3707
g5
a(I333
I302
tp3708
aF18.48
aa(lp3709
g8
a(I333
I85
tp3710
aF18.48
aa(lp3711
g115
a(I510
I300
tp3712
aF18.48
aa(lp3713
g2
a(I501
I80
tp3714
aF18.52
aa(lp3715
g5
a(I334
I302
tp3716
aF18.52
aa(lp3717
g8
a(I333
I85
tp3718
aF18.52
aa(lp3719
g115
a(I510
I300
tp3720
aF18.52
aa(lp3721
g2
a(I501
I80
tp3722
aF18.56
aa(lp3723
g5
a(I336
I302
tp3724
aF18.56
aa(lp3725
g8
a(I333
I85
tp3726
aF18.56
aa(lp3727
g115
a(I509
I299
tp3728
aF18.56
aa(lp3729
g2
a(I501
I80
tp3730
aF18.6
aa(lp3731
g5
a(I337
I302
tp3732
aF18.6
aa(lp3733
g8
a(I333
I85
tp3734
aF18.6
aa(lp3735
g115
a(I509
I300
tp3736
aF18.6
aa(lp3737
g2
a(I501
I80
tp3738
aF18.64
aa(lp3739
g5
a(I338
I302
tp3740
aF18.64
aa(lp3741
g8
a(I333
I85
tp3742
aF18.64
aa(lp3743
g115
a(I508
I299
tp3744
aF18.64
aa(lp3745
g2
a(I501
I80
tp3746
aF18.68
aa(lp3747
g5
a(I340
I302
tp3748
aF18.68
aa(lp3749
g8
a(I333
I85
tp3750
aF18.68
aa(lp3751
g115
a(I507
I299
tp3752
aF18.68
aa(lp3753
g2
a(I501
I80
tp3754
aF18.72
aa(lp3755
g5
a(I341
I302
tp3756
aF18.72
aa(lp3757
g8
a(I333
I85
tp3758
aF18.72
aa(lp3759
g115
a(I507
I300
tp3760
aF18.72
aa(lp3761
g2
a(I501
I80
tp3762
aF18.76
aa(lp3763
g5
a(I343
I302
tp3764
aF18.76
aa(lp3765
g8
a(I333
I85
tp3766
aF18.76
aa(lp3767
g115
a(I505
I299
tp3768
aF18.76
aa(lp3769
g2
a(I501
I80
tp3770
aF18.8
aa(lp3771
g5
a(I344
I302
tp3772
aF18.8
aa(lp3773
g8
a(I333
I85
tp3774
aF18.8
aa(lp3775
g115
a(I504
I299
tp3776
aF18.8
aa(lp3777
g2
a(I501
I80
tp3778
aF18.84
aa(lp3779
g5
a(I345
I302
tp3780
aF18.84
aa(lp3781
g8
a(I333
I85
tp3782
aF18.84
aa(lp3783
g115
a(I504
I300
tp3784
aF18.84
aa(lp3785
g2
a(I501
I80
tp3786
aF18.88
aa(lp3787
g5
a(I345
I302
tp3788
aF18.88
aa(lp3789
g8
a(I333
I85
tp3790
aF18.88
aa(lp3791
g115
a(I503
I300
tp3792
aF18.88
aa(lp3793
g2
a(I501
I80
tp3794
aF18.92
aa(lp3795
g5
a(I345
I302
tp3796
aF18.92
aa(lp3797
g8
a(I333
I85
tp3798
aF18.92
aa(lp3799
g115
a(I502
I300
tp3800
aF18.92
aa(lp3801
g2
a(I501
I80
tp3802
aF18.96
aa(lp3803
g5
a(I345
I302
tp3804
aF18.96
aa(lp3805
g8
a(I333
I85
tp3806
aF18.96
aa(lp3807
g115
a(I501
I299
tp3808
aF18.96
aa(lp3809
g2
a(I501
I80
tp3810
aF19.0
aa(lp3811
g5
a(I345
I302
tp3812
aF19.0
aa(lp3813
g8
a(I333
I85
tp3814
aF19.0
aa(lp3815
g115
a(I501
I300
tp3816
aF19.0
aa(lp3817
g2
a(I501
I80
tp3818
aF19.04
aa(lp3819
g5
a(I344
I302
tp3820
aF19.04
aa(lp3821
g8
a(I333
I85
tp3822
aF19.04
aa(lp3823
g115
a(I501
I300
tp3824
aF19.04
aa(lp3825
g2
a(I501
I80
tp3826
aF19.08
aa(lp3827
g5
a(I343
I302
tp3828
aF19.08
aa(lp3829
g8
a(I333
I85
tp3830
aF19.08
aa(lp3831
g115
a(I501
I300
tp3832
aF19.08
aa(lp3833
g2
a(I501
I80
tp3834
aF19.12
aa(lp3835
g5
a(I342
I302
tp3836
aF19.12
aa(lp3837
g8
a(I333
I85
tp3838
aF19.12
aa(lp3839
g115
a(I501
I299
tp3840
aF19.12
aa(lp3841
g2
a(I501
I80
tp3842
aF19.16
aa(lp3843
g5
a(I340
I302
tp3844
aF19.16
aa(lp3845
g8
a(I333
I85
tp3846
aF19.16
aa(lp3847
g115
a(I502
I300
tp3848
aF19.16
aa(lp3849
g2
a(I501
I80
tp3850
aF19.2
aa(lp3851
g5
a(I339
I302
tp3852
aF19.2
aa(lp3853
g8
a(I333
I85
tp3854
aF19.2
aa(lp3855
g115
a(I502
I299
tp3856
aF19.2
aa(lp3857
g2
a(I501
I80
tp3858
aF19.24
aa(lp3859
g5
a(I338
I302
tp3860
aF19.24
aa(lp3861
g8
a(I333
I85
tp3862
aF19.24
aa(lp3863
g115
a(I503
I300
tp3864
aF19.24
aa(lp3865
g2
a(I501
I80
tp3866
aF19.28
aa(lp3867
g5
a(I336
I302
tp3868
aF19.28
aa(lp3869
g8
a(I333
I85
tp3870
aF19.28
aa(lp3871
g115
a(I504
I300
tp3872
aF19.28
aa(lp3873
g2
a(I501
I80
tp3874
aF19.32
aa(lp3875
g5
a(I335
I302
tp3876
aF19.32
aa(lp3877
g8
a(I333
I85
tp3878
aF19.32
aa(lp3879
g115
a(I505
I300
tp3880
aF19.32
aa(lp3881
g2
a(I501
I80
tp3882
aF19.36
aa(lp3883
g5
a(I333
I302
tp3884
aF19.36
aa(lp3885
g8
a(I333
I85
tp3886
aF19.36
aa(lp3887
g115
a(I506
I299
tp3888
aF19.36
aa(lp3889
g2
a(I501
I80
tp3890
aF19.4
aa(lp3891
g5
a(I333
I302
tp3892
aF19.4
aa(lp3893
g8
a(I333
I85
tp3894
aF19.4
aa(lp3895
g115
a(I507
I299
tp3896
aF19.4
aa(lp3897
g2
a(I501
I80
tp3898
aF19.44
aa(lp3899
g5
a(I332
I302
tp3900
aF19.44
aa(lp3901
g8
a(I333
I85
tp3902
aF19.44
aa(lp3903
g115
a(I508
I300
tp3904
aF19.44
aa(lp3905
g2
a(I501
I80
tp3906
aF19.48
aa(lp3907
g5
a(I332
I302
tp3908
aF19.48
aa(lp3909
g8
a(I333
I85
tp3910
aF19.48
aa(lp3911
g115
a(I509
I300
tp3912
aF19.48
aa(lp3913
g2
a(I501
I80
tp3914
aF19.52
aa(lp3915
g5
a(I332
I302
tp3916
aF19.52
aa(lp3917
g8
a(I333
I85
tp3918
aF19.52
aa(lp3919
g115
a(I509
I299
tp3920
aF19.52
aa(lp3921
g2
a(I501
I80
tp3922
aF19.56
aa(lp3923
g5
a(I332
I302
tp3924
aF19.56
aa(lp3925
g8
a(I333
I85
tp3926
aF19.56
aa(lp3927
g115
a(I510
I300
tp3928
aF19.56
aa(lp3929
g2
a(I501
I80
tp3930
aF19.6
aa(lp3931
g5
a(I333
I302
tp3932
aF19.6
aa(lp3933
g8
a(I333
I85
tp3934
aF19.6
aa(lp3935
g115
a(I510
I300
tp3936
aF19.6
aa(lp3937
g2
a(I501
I80
tp3938
aF19.64
aa(lp3939
g5
a(I334
I302
tp3940
aF19.64
aa(lp3941
g8
a(I333
I85
tp3942
aF19.64
aa(lp3943
g115
a(I510
I300
tp3944
aF19.64
aa(lp3945
g2
a(I501
I80
tp3946
aF19.68
aa(lp3947
g5
a(I335
I302
tp3948
aF19.68
aa(lp3949
g8
a(I333
I85
tp3950
aF19.68
aa(lp3951
g115
a(I509
I299
tp3952
aF19.68
aa(lp3953
g2
a(I501
I80
tp3954
aF19.72
aa(lp3955
g5
a(I336
I302
tp3956
aF19.72
aa(lp3957
g8
a(I333
I85
tp3958
aF19.72
aa(lp3959
g115
a(I509
I299
tp3960
aF19.72
aa(lp3961
g2
a(I501
I80
tp3962
aF19.76
aa(lp3963
g5
a(I338
I302
tp3964
aF19.76
aa(lp3965
g8
a(I333
I85
tp3966
aF19.76
aa(lp3967
g115
a(I508
I299
tp3968
aF19.76
aa(lp3969
g2
a(I501
I80
tp3970
aF19.8
aa(lp3971
g5
a(I339
I302
tp3972
aF19.8
aa(lp3973
g8
a(I333
I85
tp3974
aF19.8
aa(lp3975
g115
a(I508
I300
tp3976
aF19.8
aa(lp3977
g2
a(I501
I80
tp3978
aF19.84
aa(lp3979
g5
a(I341
I302
tp3980
aF19.84
aa(lp3981
g8
a(I333
I85
tp3982
aF19.84
aa(lp3983
g115
a(I507
I299
tp3984
aF19.84
aa(lp3985
g2
a(I501
I80
tp3986
aF19.88
aa(lp3987
g5
a(I342
I302
tp3988
aF19.88
aa(lp3989
g8
a(I333
I85
tp3990
aF19.88
aa(lp3991
g115
a(I506
I300
tp3992
aF19.88
aa(lp3993
g2
a(I501
I80
tp3994
aF19.92
aa(lp3995
g5
a(I343
I302
tp3996
aF19.92
aa(lp3997
g8
a(I333
I85
tp3998
aF19.92
aa(lp3999
g115
a(I505
I300
tp4000
aF19.92
aa(lp4001
g2
a(I501
I80
tp4002
aF19.96
aa(lp4003
g5
a(I344
I302
tp4004
aF19.96
aa(lp4005
g8
a(I333
I85
tp4006
aF19.96
aa(lp4007
g115
a(I504
I300
tp4008
aF19.96
aa(lp4009
g2
a(I501
I80
tp4010
aF20.0
aa(lp4011
g5
a(I345
I302
tp4012
aF20.0
aa(lp4013
g8
a(I333
I85
tp4014
aF20.0
aa(lp4015
g115
a(I503
I299
tp4016
aF20.0
aa(lp4017
g2
a(I501
I80
tp4018
aF20.04
aa(lp4019
g5
a(I345
I302
tp4020
aF20.04
aa(lp4021
g8
a(I333
I85
tp4022
aF20.04
aa(lp4023
g115
a(I503
I300
tp4024
aF20.04
aa(lp4025
g2
a(I501
I80
tp4026
aF20.08
aa(lp4027
g5
a(I345
I302
tp4028
aF20.08
aa(lp4029
g8
a(I333
I85
tp4030
aF20.08
aa(lp4031
g115
a(I502
I300
tp4032
aF20.08
aa(lp4033
g2
a(I501
I80
tp4034
aF20.12
aa(lp4035
g5
a(I345
I302
tp4036
aF20.12
aa(lp4037
g8
a(I333
I85
tp4038
aF20.12
aa(lp4039
g115
a(I501
I299
tp4040
aF20.12
aa(lp4041
g2
a(I501
I80
tp4042
aF20.16
aa(lp4043
g5
a(I345
I302
tp4044
aF20.16
aa(lp4045
g8
a(I333
I85
tp4046
aF20.16
aa(lp4047
g115
a(I501
I299
tp4048
aF20.16
aa(lp4049
g2
a(I501
I80
tp4050
aF20.2
aa(lp4051
g5
a(I344
I302
tp4052
aF20.2
aa(lp4053
g8
a(I333
I85
tp4054
aF20.2
aa(lp4055
g115
a(I501
I299
tp4056
aF20.2
aa(lp4057
g2
a(I501
I80
tp4058
aF20.24
aa(lp4059
g5
a(I343
I302
tp4060
aF20.24
aa(lp4061
g8
a(I333
I85
tp4062
aF20.24
aa(lp4063
g115
a(I501
I299
tp4064
aF20.24
aa(lp4065
g2
a(I501
I80
tp4066
aF20.28
aa(lp4067
g5
a(I341
I302
tp4068
aF20.28
aa(lp4069
g8
a(I333
I85
tp4070
aF20.28
aa(lp4071
g115
a(I501
I299
tp4072
aF20.28
aa(lp4073
g2
a(I501
I80
tp4074
aF20.32
aa(lp4075
g5
a(I340
I302
tp4076
aF20.32
aa(lp4077
g8
a(I333
I85
tp4078
aF20.32
aa(lp4079
g115
a(I502
I300
tp4080
aF20.32
aa(lp4081
g2
a(I501
I80
tp4082
aF20.36
aa(lp4083
g5
a(I339
I302
tp4084
aF20.36
aa(lp4085
g8
a(I333
I85
tp4086
aF20.36
aa(lp4087
g115
a(I503
I300
tp4088
aF20.36
aa(lp4089
g2
a(I501
I80
tp4090
aF20.4
aa(lp4091
g5
a(I337
I302
tp4092
aF20.4
aa(lp4093
g8
a(I333
I85
tp4094
aF20.4
aa(lp4095
g115
a(I504
I300
tp4096
aF20.4
aa(lp4097
g2
a(I501
I80
tp4098
aF20.44
aa(lp4099
g5
a(I336
I302
tp4100
aF20.44
aa(lp4101
g8
a(I333
I85
tp4102
aF20.44
aa(lp4103
g115
a(I504
I299
tp4104
aF20.44
aa(lp4105
g2
a(I501
I80
tp4106
aF20.48
aa(lp4107
g5
a(I334
I302
tp4108
aF20.48
aa(lp4109
g8
a(I333
I85
tp4110
aF20.48
aa(lp4111
g115
a(I505
I299
tp4112
aF20.48
aa(lp4113
g2
a(I501
I80
tp4114
aF20.52
aa(lp4115
g5
a(I333
I302
tp4116
aF20.52
aa(lp4117
g8
a(I333
I85
tp4118
aF20.52
aa(lp4119
g115
a(I506
I299
tp4120
aF20.52
aa(lp4121
g2
a(I501
I80
tp4122
aF20.56
aa(lp4123
g5
a(I333
I302
tp4124
aF20.56
aa(lp4125
g8
a(I333
I85
tp4126
aF20.56
aa(lp4127
g115
a(I507
I299
tp4128
aF20.56
aa(lp4129
g2
a(I501
I80
tp4130
aF20.6
aa(lp4131
g5
a(I332
I302
tp4132
aF20.6
aa(lp4133
g8
a(I333
I85
tp4134
aF20.6
aa(lp4135
g115
a(I508
I299
tp4136
aF20.6
aa(lp4137
g2
a(I501
I80
tp4138
aF20.64
aa(lp4139
g5
a(I332
I302
tp4140
aF20.64
aa(lp4141
g8
a(I333
I85
tp4142
aF20.64
aa(lp4143
g115
a(I509
I300
tp4144
aF20.64
aa(lp4145
g2
a(I501
I80
tp4146
aF20.68
aa(lp4147
g5
a(I332
I302
tp4148
aF20.68
aa(lp4149
g8
a(I333
I85
tp4150
aF20.68
aa(lp4151
g115
a(I509
I299
tp4152
aF20.68
aa(lp4153
g2
a(I501
I80
tp4154
aF20.72
aa(lp4155
g5
a(I332
I302
tp4156
aF20.72
aa(lp4157
g8
a(I333
I85
tp4158
aF20.72
aa(lp4159
g115
a(I509
I299
tp4160
aF20.72
aa(lp4161
g2
a(I501
I80
tp4162
aF20.76
aa(lp4163
g5
a(I333
I302
tp4164
aF20.76
aa(lp4165
g8
a(I333
I85
tp4166
aF20.76
aa(lp4167
g115
a(I509
I299
tp4168
aF20.76
aa(lp4169
g2
a(I501
I80
tp4170
aF20.8
aa(lp4171
g5
a(I334
I302
tp4172
aF20.8
aa(lp4173
g8
a(I333
I85
tp4174
aF20.8
aa(lp4175
g115
a(I509
I299
tp4176
aF20.8
aa(lp4177
g2
a(I501
I80
tp4178
aF20.84
aa(lp4179
g5
a(I335
I302
tp4180
aF20.84
aa(lp4181
g8
a(I333
I85
tp4182
aF20.84
aa(lp4183
g115
a(I509
I299
tp4184
aF20.84
aa(lp4185
g2
a(I501
I80
tp4186
aF20.88
aa(lp4187
g5
a(I337
I302
tp4188
aF20.88
aa(lp4189
g8
a(I333
I85
tp4190
aF20.88
aa(lp4191
g115
a(I509
I300
tp4192
aF20.88
aa(lp4193
g2
a(I501
I80
tp4194
aF20.92
aa(lp4195
g5
a(I338
I302
tp4196
aF20.92
aa(lp4197
g8
a(I333
I85
tp4198
aF20.92
aa(lp4199
g115
a(I508
I299
tp4200
aF20.92
aa(lp4201
g2
a(I501
I80
tp4202
aF20.96
aa(lp4203
g5
a(I340
I302
tp4204
aF20.96
aa(lp4205
g8
a(I333
I85
tp4206
aF20.96
aa(lp4207
g115
a(I507
I299
tp4208
aF20.96
aa(lp4209
g2
a(I501
I80
tp4210
aF21.0
aa(lp4211
g5
a(I341
I302
tp4212
aF21.0
aa(lp4213
g8
a(I333
I85
tp4214
aF21.0
aa(lp4215
g115
a(I506
I299
tp4216
aF21.0
aa(lp4217
g2
a(I501
I80
tp4218
aF21.04
aa(lp4219
g5
a(I342
I302
tp4220
aF21.04
aa(lp4221
g8
a(I333
I85
tp4222
aF21.04
aa(lp4223
g115
a(I506
I300
tp4224
aF21.04
aa(lp4225
g2
a(I501
I80
tp4226
aF21.08
aa(lp4227
g5
a(I344
I302
tp4228
aF21.08
aa(lp4229
g8
a(I333
I85
tp4230
aF21.08
aa(lp4231
g115
a(I504
I299
tp4232
aF21.08
aa(lp4233
g2
a(I501
I80
tp4234
aF21.12
aa(lp4235
g5
a(I344
I302
tp4236
aF21.12
aa(lp4237
g8
a(I333
I85
tp4238
aF21.12
aa(lp4239
g115
a(I504
I300
tp4240
aF21.12
aa(lp4241
g2
a(I501
I80
tp4242
aF21.16
aa(lp4243
g5
a(I345
I302
tp4244
aF21.16
aa(lp4245
g8
a(I333
I85
tp4246
aF21.16
aa(lp4247
g115
a(I503
I299
tp4248
aF21.16
aa(lp4249
g2
a(I501
I80
tp4250
aF21.2
aa(lp4251
g5
a(I345
I302
tp4252
aF21.2
aa(lp4253
g8
a(I333
I85
tp4254
aF21.2
aa(lp4255
g115
a(I502
I299
tp4256
aF21.2
aa(lp4257
g2
a(I501
I80
tp4258
aF21.24
aa(lp4259
g5
a(I345
I302
tp4260
aF21.24
aa(lp4261
g8
a(I333
I85
tp4262
aF21.24
aa(lp4263
g115
a(I502
I300
tp4264
aF21.24
aa(lp4265
g2
a(I501
I80
tp4266
aF21.28
aa(lp4267
g5
a(I345
I302
tp4268
aF21.28
aa(lp4269
g8
a(I333
I85
tp4270
aF21.28
aa(lp4271
g115
a(I501
I300
tp4272
aF21.28
aa(lp4273
g2
a(I501
I80
tp4274
aF21.32
aa(lp4275
g5
a(I344
I302
tp4276
aF21.32
aa(lp4277
g8
a(I333
I85
tp4278
aF21.32
aa(lp4279
g115
a(I501
I299
tp4280
aF21.32
aa(lp4281
g2
a(I501
I80
tp4282
aF21.36
aa(lp4283
g5
a(I343
I302
tp4284
aF21.36
aa(lp4285
g8
a(I333
I85
tp4286
aF21.36
aa(lp4287
g115
a(I501
I299
tp4288
aF21.36
aa(lp4289
g2
a(I501
I80
tp4290
aF21.4
aa(lp4291
g5
a(I342
I302
tp4292
aF21.4
aa(lp4293
g8
a(I333
I85
tp4294
aF21.4
aa(lp4295
g115
a(I502
I300
tp4296
aF21.4
aa(lp4297
g2
a(I501
I80
tp4298
aF21.44
aa(lp4299
g5
a(I341
I302
tp4300
aF21.44
aa(lp4301
g8
a(I333
I85
tp4302
aF21.44
aa(lp4303
g115
a(I502
I300
tp4304
aF21.44
aa(lp4305
g2
a(I501
I80
tp4306
aF21.48
aa(lp4307
g5
a(I339
I302
tp4308
aF21.48
aa(lp4309
g8
a(I333
I85
tp4310
aF21.48
aa(lp4311
g115
a(I503
I300
tp4312
aF21.48
aa(lp4313
g2
a(I501
I80
tp4314
aF21.52
aa(lp4315
g5
a(I338
I302
tp4316
aF21.52
aa(lp4317
g8
a(I333
I85
tp4318
aF21.52
aa(lp4319
g115
a(I503
I299
tp4320
aF21.52
aa(lp4321
g2
a(I501
I80
tp4322
aF21.56
aa(lp4323
g5
a(I337
I302
tp4324
aF21.56
aa(lp4325
g8
a(I333
I85
tp4326
aF21.56
aa(lp4327
g115
a(I504
I300
tp4328
aF21.56
aa(lp4329
g2
a(I501
I80
tp4330
aF21.6
aa(lp4331
g5
a(I335
I302
tp4332
aF21.6
aa(lp4333
g8
a(I333
I85
tp4334
aF21.6
aa(lp4335
g115
a(I505
I300
tp4336
aF21.6
aa(lp4337
g2
a(I501
I80
tp4338
aF21.64
aa(lp4339
g5
a(I334
I302
tp4340
aF21.64
aa(lp4341
g8
a(I333
I85
tp4342
aF21.64
aa(lp4343
g115
a(I506
I300
tp4344
aF21.64
aa(lp4345
g2
a(I501
I80
tp4346
aF21.68
aa(lp4347
g5
a(I333
I302
tp4348
aF21.68
aa(lp4349
g8
a(I333
I85
tp4350
aF21.68
aa(lp4351
g115
a(I507
I300
tp4352
aF21.68
aa(lp4353
g2
a(I501
I80
tp4354
aF21.72
aa(lp4355
g5
a(I332
I302
tp4356
aF21.72
aa(lp4357
g8
a(I333
I85
tp4358
aF21.72
aa(lp4359
g115
a(I508
I300
tp4360
aF21.72
aa(lp4361
g2
a(I501
I80
tp4362
aF21.76
aa(lp4363
g5
a(I332
I302
tp4364
aF21.76
aa(lp4365
g8
a(I333
I85
tp4366
aF21.76
aa(lp4367
g115
a(I508
I300
tp4368
aF21.76
aa(lp4369
g2
a(I501
I80
tp4370
aF21.8
aa(lp4371
g5
a(I332
I302
tp4372
aF21.8
aa(lp4373
g8
a(I333
I85
tp4374
aF21.8
aa(lp4375
g115
a(I509
I300
tp4376
aF21.8
aa(lp4377
g2
a(I501
I80
tp4378
aF21.84
aa(lp4379
g5
a(I332
I302
tp4380
aF21.84
aa(lp4381
g8
a(I333
I85
tp4382
aF21.84
aa(lp4383
g115
a(I509
I299
tp4384
aF21.84
aa(lp4385
g2
a(I501
I80
tp4386
aF21.88
aa(lp4387
g5
a(I333
I302
tp4388
aF21.88
aa(lp4389
g8
a(I333
I85
tp4390
aF21.88
aa(lp4391
g115
a(I509
I299
tp4392
aF21.88
aa(lp4393
g2
a(I501
I80
tp4394
aF21.92
aa(lp4395
g5
a(I334
I302
tp4396
aF21.92
aa(lp4397
g8
a(I333
I85
tp4398
aF21.92
aa(lp4399
g115
a(I509
I299
tp4400
aF21.92
aa(lp4401
g2
a(I501
I80
tp4402
aF21.96
aa(lp4403
g5
a(I334
I302
tp4404
aF21.96
aa(lp4405
g8
a(I333
I85
tp4406
aF21.96
aa(lp4407
g115
a(I509
I299
tp4408
aF21.96
aa(lp4409
g2
a(I501
I80
tp4410
aF22.0
aa(lp4411
g5
a(I336
I302
tp4412
aF22.0
aa(lp4413
g8
a(I333
I85
tp4414
aF22.0
aa(lp4415
g115
a(I509
I300
tp4416
aF22.0
aa(lp4417
g2
a(I501
I80
tp4418
aF22.04
aa(lp4419
g5
a(I337
I302
tp4420
aF22.04
aa(lp4421
g8
a(I333
I85
tp4422
aF22.04
aa(lp4423
g115
a(I509
I300
tp4424
aF22.04
aa(lp4425
g2
a(I501
I80
tp4426
aF22.08
aa(lp4427
g5
a(I339
I302
tp4428
aF22.08
aa(lp4429
g8
a(I333
I85
tp4430
aF22.08
aa(lp4431
g115
a(I507
I299
tp4432
aF22.08
aa(lp4433
g2
a(I501
I80
tp4434
aF22.12
aa(lp4435
g5
a(I340
I302
tp4436
aF22.12
aa(lp4437
g8
a(I333
I85
tp4438
aF22.12
aa(lp4439
g115
a(I507
I300
tp4440
aF22.12
aa(lp4441
g2
a(I501
I80
tp4442
aF22.16
aa(lp4443
g5
a(I341
I302
tp4444
aF22.16
aa(lp4445
g8
a(I333
I85
tp4446
aF22.16
aa(lp4447
g115
a(I506
I299
tp4448
aF22.16
aa(lp4449
g2
a(I501
I80
tp4450
aF22.2
aa(lp4451
g5
a(I343
I302
tp4452
aF22.2
aa(lp4453
g8
a(I333
I85
tp4454
aF22.2
aa(lp4455
g115
a(I505
I299
tp4456
aF22.2
aa(lp4457
g2
a(I501
I80
tp4458
aF22.24
aa(lp4459
g5
a(I344
I302
tp4460
aF22.24
aa(lp4461
g8
a(I333
I85
tp4462
aF22.24
aa(lp4463
g115
a(I504
I299
tp4464
aF22.24
aa(lp4465
g2
a(I501
I80
tp4466
aF22.28
aa(lp4467
g5
a(I344
I302
tp4468
aF22.28
aa(lp4469
g8
a(I333
I85
tp4470
aF22.28
aa(lp4471
g115
a(I503
I299
tp4472
aF22.28
aa(lp4473
g2
a(I501
I80
tp4474
aF22.32
aa(lp4475
g5
a(I345
I302
tp4476
aF22.32
aa(lp4477
g8
a(I333
I85
tp4478
aF22.32
aa(lp4479
g115
a(I503
I300
tp4480
aF22.32
aa(lp4481
g2
a(I501
I80
tp4482
aF22.36
aa(lp4483
g5
a(I345
I302
tp4484
aF22.36
aa(lp4485
g8
a(I333
I85
tp4486
aF22.36
aa(lp4487
g115
a(I502
I299
tp4488
aF22.36
aa(lp4489
g2
a(I501
I80
tp4490
aF22.4
aa(lp4491
g5
a(I345
I302
tp4492
aF22.4
aa(lp4493
g8
a(I333
I85
tp4494
aF22.4
aa(lp4495
g115
a(I502
I300
tp4496
aF22.4
aa(lp4497
g2
a(I501
I80
tp4498
aF22.44
aa(lp4499
g5
a(I344
I302
tp4500
aF22.44
aa(lp4501
g8
a(I333
I85
tp4502
aF22.44
aa(lp4503
g115
a(I501
I299
tp4504
aF22.44
aa(lp4505
g2
a(I501
I80
tp4506
aF22.48
aa(lp4507
g5
a(I343
I301
tp4508
aF22.48
aa(lp4509
g8
a(I333
I85
tp4510
aF22.48
aa(lp4511
g115
a(I501
I300
tp4512
aF22.48
aa(lp4513
g2
a(I501
I80
tp4514
aF22.52
aa(lp4515
g5
a(I343
I302
tp4516
aF22.52
aa(lp4517
g8
a(I333
I85
tp4518
aF22.52
aa(lp4519
g115
a(I502
I300
tp4520
aF22.52
aa(lp4521
g2
a(I501
I80
tp4522
aF22.56
aa(lp4523
g5
a(I342
I302
tp4524
aF22.56
aa(lp4525
g8
a(I333
I85
tp4526
aF22.56
aa(lp4527
g115
a(I502
I300
tp4528
aF22.56
aa(lp4529
g2
a(I501
I80
tp4530
aF22.6
aa(lp4531
g5
a(I340
I302
tp4532
aF22.6
aa(lp4533
g8
a(I333
I85
tp4534
aF22.6
aa(lp4535
g115
a(I502
I299
tp4536
aF22.6
aa(lp4537
g2
a(I501
I80
tp4538
aF22.64
aa(lp4539
g5
a(I339
I302
tp4540
aF22.64
aa(lp4541
g8
a(I333
I85
tp4542
aF22.64
aa(lp4543
g115
a(I503
I300
tp4544
aF22.64
aa(lp4545
g2
a(I501
I80
tp4546
aF22.68
aa(lp4547
g5
a(I337
I302
tp4548
aF22.68
aa(lp4549
g8
a(I333
I85
tp4550
aF22.68
aa(lp4551
g115
a(I504
I300
tp4552
aF22.68
aa(lp4553
g2
a(I501
I80
tp4554
aF22.72
aa(lp4555
g5
a(I336
I302
tp4556
aF22.72
aa(lp4557
g8
a(I333
I85
tp4558
aF22.72
aa(lp4559
g115
a(I504
I299
tp4560
aF22.72
aa(lp4561
g2
a(I501
I80
tp4562
aF22.76
aa(lp4563
g5
a(I335
I302
tp4564
aF22.76
aa(lp4565
g8
a(I333
I85
tp4566
aF22.76
aa(lp4567
g115
a(I505
I300
tp4568
aF22.76
aa(lp4569
g2
a(I501
I80
tp4570
aF22.8
aa(lp4571
g5
a(I334
I302
tp4572
aF22.8
aa(lp4573
g8
a(I333
I85
tp4574
aF22.8
aa(lp4575
g115
a(I506
I299
tp4576
aF22.8
aa(lp4577
g2
a(I501
I80
tp4578
aF22.84
aa(lp4579
g5
a(I333
I302
tp4580
aF22.84
aa(lp4581
g8
a(I333
I85
tp4582
aF22.84
aa(lp4583
g115
a(I507
I300
tp4584
aF22.84
aa(lp4585
g2
a(I501
I80
tp4586
aF22.88
aa(lp4587
g5
a(I332
I302
tp4588
aF22.88
aa(lp4589
g8
a(I333
I85
tp4590
aF22.88
aa(lp4591
g115
a(I508
I300
tp4592
aF22.88
aa(lp4593
g2
a(I501
I80
tp4594
aF22.92
aa(lp4595
g5
a(I332
I302
tp4596
aF22.92
aa(lp4597
g8
a(I333
I85
tp4598
aF22.92
aa(lp4599
g115
a(I508
I299
tp4600
aF22.92
aa(lp4601
g2
a(I501
I80
tp4602
aF22.96
aa(lp4603
g5
a(I332
I302
tp4604
aF22.96
aa(lp4605
g8
a(I333
I85
tp4606
aF22.96
aa(lp4607
g115
a(I509
I300
tp4608
aF22.96
aa(lp4609
g2
a(I501
I80
tp4610
aF23.0
aa(lp4611
g5
a(I333
I302
tp4612
aF23.0
aa(lp4613
g8
a(I333
I85
tp4614
aF23.0
aa(lp4615
g115
a(I509
I299
tp4616
aF23.0
aa(lp4617
g2
a(I501
I80
tp4618
aF23.04
aa(lp4619
g5
a(I333
I302
tp4620
aF23.04
aa(lp4621
g8
a(I333
I85
tp4622
aF23.04
aa(lp4623
g115
a(I509
I299
tp4624
aF23.04
aa(lp4625
g2
a(I501
I80
tp4626
aF23.08
aa(lp4627
g5
a(I334
I302
tp4628
aF23.08
aa(lp4629
g8
a(I333
I85
tp4630
aF23.08
aa(lp4631
g115
a(I509
I299
tp4632
aF23.08
aa(lp4633
g2
a(I501
I80
tp4634
aF23.12
aa(lp4635
g5
a(I335
I302
tp4636
aF23.12
aa(lp4637
g8
a(I333
I85
tp4638
aF23.12
aa(lp4639
g115
a(I509
I300
tp4640
aF23.12
aa(lp4641
g2
a(I501
I80
tp4642
aF23.16
aa(lp4643
g5
a(I336
I302
tp4644
aF23.16
aa(lp4645
g8
a(I333
I85
tp4646
aF23.16
aa(lp4647
g115
a(I509
I300
tp4648
aF23.16
aa(lp4649
g2
a(I501
I80
tp4650
aF23.2
aa(lp4651
g5
a(I338
I302
tp4652
aF23.2
aa(lp4653
g8
a(I333
I85
tp4654
aF23.2
aa(lp4655
g115
a(I508
I300
tp4656
aF23.2
aa(lp4657
g2
a(I501
I80
tp4658
aF23.24
aa(lp4659
g5
a(I339
I302
tp4660
aF23.24
aa(lp4661
g8
a(I333
I85
tp4662
aF23.24
aa(lp4663
g115
a(I507
I299
tp4664
aF23.24
aa(lp4665
g2
a(I501
I80
tp4666
aF23.28
aa(lp4667
g5
a(I341
I302
tp4668
aF23.28
aa(lp4669
g8
a(I333
I85
tp4670
aF23.28
aa(lp4671
g115
a(I506
I299
tp4672
aF23.28
aa(lp4673
g2
a(I501
I80
tp4674
aF23.32
aa(lp4675
g5
a(I342
I302
tp4676
aF23.32
aa(lp4677
g8
a(I333
I85
tp4678
aF23.32
aa(lp4679
g115
a(I506
I300
tp4680
aF23.32
aa(lp4681
g2
a(I501
I80
tp4682
aF23.36
aa(lp4683
g5
a(I343
I302
tp4684
aF23.36
aa(lp4685
g8
a(I333
I85
tp4686
aF23.36
aa(lp4687
g115
a(I505
I300
tp4688
aF23.36
aa(lp4689
g2
a(I501
I80
tp4690
aF23.4
aa(lp4691
g5
a(I344
I302
tp4692
aF23.4
aa(lp4693
g8
a(I333
I85
tp4694
aF23.4
aa(lp4695
g115
a(I504
I300
tp4696
aF23.4
aa(lp4697
g2
a(I501
I80
tp4698
aF23.44
aa(lp4699
g5
a(I344
I302
tp4700
aF23.44
aa(lp4701
g8
a(I333
I85
tp4702
aF23.44
aa(lp4703
g115
a(I503
I299
tp4704
aF23.44
aa(lp4705
g2
a(I501
I80
tp4706
aF23.48
aa(lp4707
g5
a(I345
I302
tp4708
aF23.48
aa(lp4709
g8
a(I333
I85
tp4710
aF23.48
aa(lp4711
g115
a(I503
I300
tp4712
aF23.48
aa(lp4713
g2
a(I501
I80
tp4714
aF23.52
aa(lp4715
g5
a(I345
I302
tp4716
aF23.52
aa(lp4717
g8
a(I333
I85
tp4718
aF23.52
aa(lp4719
g115
a(I502
I299
tp4720
aF23.52
aa(lp4721
g2
a(I501
I80
tp4722
aF23.56
aa(lp4723
g5
a(I345
I302
tp4724
aF23.56
aa(lp4725
g8
a(I333
I85
tp4726
aF23.56
aa(lp4727
g115
a(I502
I300
tp4728
aF23.56
aa(lp4729
g2
a(I501
I80
tp4730
aF23.6
aa(lp4731
g5
a(I344
I302
tp4732
aF23.6
aa(lp4733
g8
a(I333
I85
tp4734
aF23.6
aa(lp4735
g115
a(I502
I300
tp4736
aF23.6
aa(lp4737
g2
a(I501
I80
tp4738
aF23.64
aa(lp4739
g5
a(I343
I302
tp4740
aF23.64
aa(lp4741
g8
a(I333
I85
tp4742
aF23.64
aa(lp4743
g115
a(I502
I300
tp4744
aF23.64
aa(lp4745
g2
a(I501
I80
tp4746
aF23.68
aa(lp4747
g5
a(I342
I302
tp4748
aF23.68
aa(lp4749
g8
a(I333
I85
tp4750
aF23.68
aa(lp4751
g115
a(I502
I300
tp4752
aF23.68
aa(lp4753
g2
a(I501
I80
tp4754
aF23.72
aa(lp4755
g5
a(I341
I302
tp4756
aF23.72
aa(lp4757
g8
a(I333
I85
tp4758
aF23.72
aa(lp4759
g115
a(I502
I300
tp4760
aF23.72
aa(lp4761
g2
a(I501
I80
tp4762
aF23.76
aa(lp4763
g5
a(I340
I302
tp4764
aF23.76
aa(lp4765
g8
a(I333
I85
tp4766
aF23.76
aa(lp4767
g115
a(I502
I299
tp4768
aF23.76
aa(lp4769
g2
a(I501
I80
tp4770
aF23.8
aa(lp4771
g5
a(I338
I302
tp4772
aF23.8
aa(lp4773
g8
a(I333
I85
tp4774
aF23.8
aa(lp4775
g115
a(I503
I299
tp4776
aF23.8
aa(lp4777
g2
a(I501
I80
tp4778
aF23.84
aa(lp4779
g5
a(I337
I302
tp4780
aF23.84
aa(lp4781
g8
a(I333
I85
tp4782
aF23.84
aa(lp4783
g115
a(I504
I300
tp4784
aF23.84
aa(lp4785
g2
a(I501
I80
tp4786
aF23.88
aa(lp4787
g5
a(I336
I302
tp4788
aF23.88
aa(lp4789
g8
a(I333
I85
tp4790
aF23.88
aa(lp4791
g115
a(I505
I300
tp4792
aF23.88
aa(lp4793
g2
a(I501
I80
tp4794
aF23.92
aa(lp4795
g5
a(I334
I302
tp4796
aF23.92
aa(lp4797
g8
a(I333
I85
tp4798
aF23.92
aa(lp4799
g115
a(I506
I300
tp4800
aF23.92
aa(lp4801
g2
a(I501
I80
tp4802
aF23.96
aa(lp4803
g5
a(I333
I302
tp4804
aF23.96
aa(lp4805
g8
a(I333
I85
tp4806
aF23.96
aa(lp4807
g115
a(I506
I299
tp4808
aF23.96
aa(lp4809
g2
a(I501
I80
tp4810
aF24.0
aa(lp4811
g5
a(I333
I302
tp4812
aF24.0
aa(lp4813
g8
a(I333
I85
tp4814
aF24.0
aa(lp4815
g115
a(I507
I299
tp4816
aF24.0
aa(lp4817
g2
a(I501
I80
tp4818
aF24.04
aa(lp4819
g5
a(I332
I302
tp4820
aF24.04
aa(lp4821
g8
a(I333
I85
tp4822
aF24.04
aa(lp4823
g115
a(I508
I300
tp4824
aF24.04
aa(lp4825
g2
a(I501
I80
tp4826
aF24.08
aa(lp4827
g5
a(I332
I302
tp4828
aF24.08
aa(lp4829
g8
a(I333
I85
tp4830
aF24.08
aa(lp4831
g115
a(I508
I299
tp4832
aF24.08
aa(lp4833
g2
a(I501
I80
tp4834
aF24.12
aa(lp4835
g5
a(I333
I302
tp4836
aF24.12
aa(lp4837
g8
a(I333
I85
tp4838
aF24.12
aa(lp4839
g115
a(I509
I300
tp4840
aF24.12
aa(lp4841
g2
a(I501
I80
tp4842
aF24.16
aa(lp4843
g5
a(I333
I302
tp4844
aF24.16
aa(lp4845
g8
a(I333
I85
tp4846
aF24.16
aa(lp4847
g115
a(I509
I299
tp4848
aF24.16
aa(lp4849
g2
a(I501
I80
tp4850
aF24.2
aa(lp4851
g5
a(I334
I302
tp4852
aF24.2
aa(lp4853
g8
a(I333
I85
tp4854
aF24.2
aa(lp4855
g115
a(I509
I299
tp4856
aF24.2
aa(lp4857
g2
a(I501
I80
tp4858
aF24.24
aa(lp4859
g5
a(I335
I302
tp4860
aF24.24
aa(lp4861
g8
a(I333
I85
tp4862
aF24.24
aa(lp4863
g115
a(I509
I299
tp4864
aF24.24
aa(lp4865
g2
a(I501
I80
tp4866
aF24.28
aa(lp4867
g5
a(I336
I302
tp4868
aF24.28
aa(lp4869
g8
a(I333
I85
tp4870
aF24.28
aa(lp4871
g115
a(I509
I300
tp4872
aF24.28
aa(lp4873
g2
a(I501
I80
tp4874
aF24.32
aa(lp4875
g5
a(I337
I302
tp4876
aF24.32
aa(lp4877
g8
a(I333
I85
tp4878
aF24.32
aa(lp4879
g115
a(I508
I299
tp4880
aF24.32
aa(lp4881
g2
a(I501
I80
tp4882
aF24.36
aa(lp4883
g5
a(I338
I302
tp4884
aF24.36
aa(lp4885
g8
a(I333
I85
tp4886
aF24.36
aa(lp4887
g115
a(I508
I300
tp4888
aF24.36
aa(lp4889
g2
a(I501
I80
tp4890
aF24.4
aa(lp4891
g5
a(I340
I302
tp4892
aF24.4
aa(lp4893
g8
a(I333
I85
tp4894
aF24.4
aa(lp4895
g115
a(I507
I300
tp4896
aF24.4
aa(lp4897
g2
a(I501
I80
tp4898
aF24.44
aa(lp4899
g5
a(I341
I302
tp4900
aF24.44
aa(lp4901
g8
a(I333
I85
tp4902
aF24.44
aa(lp4903
g115
a(I506
I300
tp4904
aF24.44
aa(lp4905
g2
a(I501
I80
tp4906
aF24.48
aa(lp4907
g5
a(I342
I302
tp4908
aF24.48
aa(lp4909
g8
a(I333
I85
tp4910
aF24.48
aa(lp4911
g115
a(I506
I300
tp4912
aF24.48
aa(lp4913
g2
a(I501
I80
tp4914
aF24.52
aa(lp4915
g5
a(I343
I302
tp4916
aF24.52
aa(lp4917
g8
a(I333
I85
tp4918
aF24.52
aa(lp4919
g115
a(I505
I299
tp4920
aF24.52
aa(lp4921
g2
a(I501
I80
tp4922
aF24.56
aa(lp4923
g5
a(I344
I302
tp4924
aF24.56
aa(lp4925
g8
a(I333
I85
tp4926
aF24.56
aa(lp4927
g115
a(I504
I300
tp4928
aF24.56
aa(lp4929
g2
a(I501
I80
tp4930
aF24.6
aa(lp4931
g5
a(I344
I302
tp4932
aF24.6
aa(lp4933
g8
a(I333
I85
tp4934
aF24.6
aa(lp4935
g115
a(I503
I300
tp4936
aF24.6
aa(lp4937
g2
a(I501
I80
tp4938
aF24.64
aa(lp4939
g5
a(I345
I302
tp4940
aF24.64
aa(lp4941
g8
a(I333
I85
tp4942
aF24.64
aa(lp4943
g115
a(I503
I300
tp4944
aF24.64
aa(lp4945
g2
a(I501
I80
tp4946
aF24.68
aa(lp4947
g5
a(I345
I302
tp4948
aF24.68
aa(lp4949
g8
a(I333
I85
tp4950
aF24.68
aa(lp4951
g115
a(I502
I299
tp4952
aF24.68
aa(lp4953
g2
a(I501
I80
tp4954
aF24.72
aa(lp4955
g5
a(I344
I302
tp4956
aF24.72
aa(lp4957
g8
a(I333
I85
tp4958
aF24.72
aa(lp4959
g115
a(I502
I300
tp4960
aF24.72
aa(lp4961
g2
a(I501
I80
tp4962
aF24.76
aa(lp4963
g5
a(I344
I302
tp4964
aF24.76
aa(lp4965
g8
a(I333
I85
tp4966
aF24.76
aa(lp4967
g115
a(I502
I300
tp4968
aF24.76
aa(lp4969
g2
a(I501
I80
tp4970
aF24.8
aa(lp4971
g5
a(I343
I302
tp4972
aF24.8
aa(lp4973
g8
a(I333
I85
tp4974
aF24.8
aa(lp4975
g115
a(I502
I300
tp4976
aF24.8
aa(lp4977
g2
a(I501
I80
tp4978
aF24.84
aa(lp4979
g5
a(I342
I302
tp4980
aF24.84
aa(lp4981
g8
a(I333
I85
tp4982
aF24.84
aa(lp4983
g115
a(I502
I300
tp4984
aF24.84
aa(lp4985
g2
a(I501
I80
tp4986
aF24.88
aa(lp4987
g5
a(I341
I302
tp4988
aF24.88
aa(lp4989
g8
a(I333
I85
tp4990
aF24.88
aa(lp4991
g115
a(I502
I299
tp4992
aF24.88
aa(lp4993
g2
a(I501
I80
tp4994
aF24.92
aa(lp4995
g5
a(I339
I302
tp4996
aF24.92
aa(lp4997
g8
a(I333
I85
tp4998
aF24.92
aa(lp4999
g115
a(I503
I300
tp5000
aF24.92
aa(lp5001
g2
a(I501
I80
tp5002
aF24.96
aa(lp5003
g5
a(I338
I302
tp5004
aF24.96
aa(lp5005
g8
a(I333
I85
tp5006
aF24.96
aa(lp5007
g115
a(I503
I299
tp5008
aF24.96
aa(lp5009
g2
a(I501
I80
tp5010
aF25.0
aa(lp5011
g5
a(I336
I302
tp5012
aF25.0
aa(lp5013
g8
a(I333
I85
tp5014
aF25.0
aa(lp5015
g115
a(I504
I299
tp5016
aF25.0
aa(lp5017
g2
a(I501
I80
tp5018
aF25.04
aa(lp5019
g5
a(I335
I302
tp5020
aF25.04
aa(lp5021
g8
a(I333
I85
tp5022
aF25.04
aa(lp5023
g115
a(I505
I300
tp5024
aF25.04
aa(lp5025
g2
a(I501
I80
tp5026
aF25.08
aa(lp5027
g5
a(I334
I302
tp5028
aF25.08
aa(lp5029
g8
a(I333
I85
tp5030
aF25.08
aa(lp5031
g115
a(I506
I300
tp5032
aF25.08
aa(lp5033
g2
a(I501
I80
tp5034
aF25.12
aa(lp5035
g5
a(I333
I302
tp5036
aF25.12
aa(lp5037
g8
a(I333
I85
tp5038
aF25.12
aa(lp5039
g115
a(I507
I300
tp5040
aF25.12
aa(lp5041
g2
a(I501
I80
tp5042
aF25.16
aa(lp5043
g5
a(I333
I302
tp5044
aF25.16
aa(lp5045
g8
a(I333
I85
tp5046
aF25.16
aa(lp5047
g115
a(I507
I299
tp5048
aF25.16
aa(lp5049
g2
a(I501
I80
tp5050
aF25.2
aa(lp5051
g5
a(I332
I302
tp5052
aF25.2
aa(lp5053
g8
a(I333
I85
tp5054
aF25.2
aa(lp5055
g115
a(I508
I299
tp5056
aF25.2
aa(lp5057
g2
a(I501
I80
tp5058
aF25.24
aa(lp5059
g5
a(I332
I302
tp5060
aF25.24
aa(lp5061
g8
a(I333
I85
tp5062
aF25.24
aa(lp5063
g115
a(I508
I299
tp5064
aF25.24
aa(lp5065
g2
a(I501
I80
tp5066
aF25.28
aa(lp5067
g5
a(I333
I302
tp5068
aF25.28
aa(lp5069
g8
a(I333
I85
tp5070
aF25.28
aa(lp5071
g115
a(I509
I300
tp5072
aF25.28
aa(lp5073
g2
a(I501
I80
tp5074
aF25.32
aa(lp5075
g5
a(I333
I302
tp5076
aF25.32
aa(lp5077
g8
a(I333
I85
tp5078
aF25.32
aa(lp5079
g115
a(I509
I300
tp5080
aF25.32
aa(lp5081
g2
a(I501
I80
tp5082
aF25.36
aa(lp5083
g5
a(I334
I302
tp5084
aF25.36
aa(lp5085
g8
a(I333
I85
tp5086
aF25.36
aa(lp5087
g115
a(I509
I300
tp5088
aF25.36
aa(lp5089
g2
a(I501
I80
tp5090
aF25.4
aa(lp5091
g5
a(I335
I302
tp5092
aF25.4
aa(lp5093
g8
a(I333
I85
tp5094
aF25.4
aa(lp5095
g115
a(I509
I300
tp5096
aF25.4
aa(lp5097
g2
a(I501
I80
tp5098
aF25.44
aa(lp5099
g5
a(I336
I302
tp5100
aF25.44
aa(lp5101
g8
a(I333
I85
tp5102
aF25.44
aa(lp5103
g115
a(I508
I299
tp5104
aF25.44
aa(lp5105
g2
a(I501
I80
tp5106
aF25.48
aa(lp5107
g5
a(I337
I302
tp5108
aF25.48
aa(lp5109
g8
a(I333
I85
tp5110
aF25.48
aa(lp5111
g115
a(I508
I299
tp5112
aF25.48
aa(lp5113
g2
a(I501
I80
tp5114
aF25.52
aa(lp5115
g5
a(I339
I302
tp5116
aF25.52
aa(lp5117
g8
a(I333
I85
tp5118
aF25.52
aa(lp5119
g115
a(I507
I299
tp5120
aF25.52
aa(lp5121
g2
a(I501
I80
tp5122
aF25.56
aa(lp5123
g5
a(I340
I302
tp5124
aF25.56
aa(lp5125
g8
a(I333
I85
tp5126
aF25.56
aa(lp5127
g115
a(I507
I300
tp5128
aF25.56
aa(lp5129
g2
a(I501
I80
tp5130
aF25.6
aa(lp5131
g5
a(I342
I302
tp5132
aF25.6
aa(lp5133
g8
a(I333
I85
tp5134
aF25.6
aa(lp5135
g115
a(I506
I300
tp5136
aF25.6
aa(lp5137
g2
a(I501
I80
tp5138
aF25.64
aa(lp5139
g5
a(I343
I302
tp5140
aF25.64
aa(lp5141
g8
a(I333
I85
tp5142
aF25.64
aa(lp5143
g115
a(I505
I299
tp5144
aF25.64
aa(lp5145
g2
a(I501
I80
tp5146
aF25.68
aa(lp5147
g5
a(I343
I302
tp5148
aF25.68
aa(lp5149
g8
a(I333
I85
tp5150
aF25.68
aa(lp5151
g115
a(I504
I299
tp5152
aF25.68
aa(lp5153
g2
a(I501
I80
tp5154
aF25.72
aa(lp5155
g5
a(I344
I302
tp5156
aF25.72
aa(lp5157
g8
a(I333
I85
tp5158
aF25.72
aa(lp5159
g115
a(I504
I300
tp5160
aF25.72
aa(lp5161
g2
a(I501
I80
tp5162
aF25.76
aa(lp5163
g5
a(I344
I302
tp5164
aF25.76
aa(lp5165
g8
a(I333
I85
tp5166
aF25.76
aa(lp5167
g115
a(I503
I300
tp5168
aF25.76
aa(lp5169
g2
a(I501
I80
tp5170
aF25.8
aa(lp5171
g5
a(I344
I302
tp5172
aF25.8
aa(lp5173
g8
a(I333
I85
tp5174
aF25.8
aa(lp5175
g115
a(I502
I299
tp5176
aF25.8
aa(lp5177
g2
a(I501
I80
tp5178
aF25.84
aa(lp5179
g5
a(I344
I302
tp5180
aF25.84
aa(lp5181
g8
a(I333
I85
tp5182
aF25.84
aa(lp5183
g115
a(I502
I299
tp5184
aF25.84
aa(lp5185
g2
a(I501
I80
tp5186
aF25.88
aa(lp5187
g5
a(I344
I302
tp5188
aF25.88
aa(lp5189
g8
a(I333
I85
tp5190
aF25.88
aa(lp5191
g115
a(I502
I300
tp5192
aF25.88
aa(lp5193
g2
a(I501
I80
tp5194
aF25.92
aa(lp5195
g5
a(I343
I302
tp5196
aF25.92
aa(lp5197
g8
a(I333
I85
tp5198
aF25.92
aa(lp5199
g115
a(I502
I300
tp5200
aF25.92
aa(lp5201
g2
a(I501
I80
tp5202
aF25.96
aa(lp5203
g5
a(I342
I302
tp5204
aF25.96
aa(lp5205
g8
a(I333
I85
tp5206
aF25.96
aa(lp5207
g115
a(I502
I300
tp5208
aF25.96
aa(lp5209
g2
a(I501
I80
tp5210
aF26.0
aa(lp5211
g5
a(I341
I302
tp5212
aF26.0
aa(lp5213
g8
a(I333
I85
tp5214
aF26.0
aa(lp5215
g115
a(I502
I299
tp5216
aF26.0
aa(lp5217
g2
a(I501
I80
tp5218
aF26.04
aa(lp5219
g5
a(I340
I302
tp5220
aF26.04
aa(lp5221
g8
a(I333
I85
tp5222
aF26.04
aa(lp5223
g115
a(I503
I300
tp5224
aF26.04
aa(lp5225
g2
a(I501
I80
tp5226
aF26.08
aa(lp5227
g5
a(I339
I302
tp5228
aF26.08
aa(lp5229
g8
a(I333
I85
tp5230
aF26.08
aa(lp5231
g115
a(I503
I299
tp5232
aF26.08
aa(lp5233
g2
a(I501
I80
tp5234
aF26.12
aa(lp5235
g5
a(I337
I302
tp5236
aF26.12
aa(lp5237
g8
a(I333
I85
tp5238
aF26.12
aa(lp5239
g115
a(I504
I300
tp5240
aF26.12
aa(lp5241
g2
a(I501
I80
tp5242
aF26.16
aa(lp5243
g5
a(I336
I302
tp5244
aF26.16
aa(lp5245
g8
a(I333
I85
tp5246
aF26.16
aa(lp5247
g115
a(I505
I300
tp5248
aF26.16
aa(lp5249
g2
a(I501
I80
tp5250
aF26.2
aa(lp5251
g5
a(I335
I302
tp5252
aF26.2
aa(lp5253
g8
a(I333
I85
tp5254
aF26.2
aa(lp5255
g115
a(I505
I299
tp5256
aF26.2
aa(lp5257
g2
a(I501
I80
tp5258
aF26.24
aa(lp5259
g5
a(I334
I302
tp5260
aF26.24
aa(lp5261
g8
a(I333
I85
tp5262
aF26.24
aa(lp5263
g115
a(I506
I299
tp5264
aF26.24
aa(lp5265
g2
a(I501
I80
tp5266
aF26.28
aa(lp5267
g5
a(I333
I302
tp5268
aF26.28
aa(lp5269
g8
a(I333
I85
tp5270
aF26.28
aa(lp5271
g115
a(I507
I300
tp5272
aF26.28
aa(lp5273
g2
a(I501
I80
tp5274
aF26.32
aa(lp5275
g5
a(I332
I302
tp5276
aF26.32
aa(lp5277
g8
a(I333
I85
tp5278
aF26.32
aa(lp5279
g115
a(I507
I299
tp5280
aF26.32
aa(lp5281
g2
a(I501
I80
tp5282
aF26.36
aa(lp5283
g5
a(I332
I302
tp5284
aF26.36
aa(lp5285
g8
a(I333
I85
tp5286
aF26.36
aa(lp5287
g115
a(I508
I300
tp5288
aF26.36
aa(lp5289
g2
a(I501
I80
tp5290
aF26.4
aa(lp5291
g5
a(I333
I302
tp5292
aF26.4
aa(lp5293
g8
a(I333
I85
tp5294
aF26.4
aa(lp5295
g115
a(I508
I299
tp5296
aF26.4
aa(lp5297
g2
a(I501
I80
tp5298
aF26.44
aa(lp5299
g5
a(I333
I302
tp5300
aF26.44
aa(lp5301
g8
a(I333
I85
tp5302
aF26.44
aa(lp5303
g115
a(I509
I300
tp5304
aF26.44
aa(lp5305
g2
a(I501
I80
tp5306
aF26.48
aa(lp5307
g5
a(I333
I302
tp5308
aF26.48
aa(lp5309
g8
a(I333
I85
tp5310
aF26.48
aa(lp5311
g115
a(I509
I300
tp5312
aF26.48
aa(lp5313
g2
a(I501
I80
tp5314
aF26.52
aa(lp5315
g5
a(I334
I302
tp5316
aF26.52
aa(lp5317
g8
a(I333
I85
tp5318
aF26.52
aa(lp5319
g115
a(I508
I299
tp5320
aF26.52
aa(lp5321
g2
a(I501
I80
tp5322
aF26.56
aa(lp5323
g5
a(I335
I302
tp5324
aF26.56
aa(lp5325
g8
a(I333
I85
tp5326
aF26.56
aa(lp5327
g115
a(I508
I299
tp5328
aF26.56
aa(lp5329
g2
a(I501
I80
tp5330
aF26.6
aa(lp5331
g5
a(I337
I302
tp5332
aF26.6
aa(lp5333
g8
a(I333
I85
tp5334
aF26.6
aa(lp5335
g115
a(I508
I299
tp5336
aF26.6
aa(lp5337
g2
a(I501
I80
tp5338
aF26.64
aa(lp5339
g5
a(I338
I302
tp5340
aF26.64
aa(lp5341
g8
a(I333
I85
tp5342
aF26.64
aa(lp5343
g115
a(I508
I300
tp5344
aF26.64
aa(lp5345
g2
a(I501
I80
tp5346
aF26.68
aa(lp5347
g5
a(I339
I302
tp5348
aF26.68
aa(lp5349
g8
a(I333
I85
tp5350
aF26.68
aa(lp5351
g115
a(I507
I299
tp5352
aF26.68
aa(lp5353
g2
a(I501
I80
tp5354
aF26.72
aa(lp5355
g5
a(I341
I302
tp5356
aF26.72
aa(lp5357
g8
a(I333
I85
tp5358
aF26.72
aa(lp5359
g115
a(I506
I299
tp5360
aF26.72
aa(lp5361
g2
a(I501
I80
tp5362
aF26.76
aa(lp5363
g5
a(I342
I302
tp5364
aF26.76
aa(lp5365
g8
a(I333
I85
tp5366
aF26.76
aa(lp5367
g115
a(I506
I300
tp5368
aF26.76
aa(lp5369
g2
a(I501
I80
tp5370
aF26.8
aa(lp5371
g5
a(I343
I302
tp5372
aF26.8
aa(lp5373
g8
a(I333
I85
tp5374
aF26.8
aa(lp5375
g115
a(I505
I300
tp5376
aF26.8
aa(lp5377
g2
a(I501
I80
tp5378
aF26.84
aa(lp5379
g5
a(I344
I302
tp5380
aF26.84
aa(lp5381
g8
a(I333
I85
tp5382
aF26.84
aa(lp5383
g115
a(I504
I300
tp5384
aF26.84
aa(lp5385
g2
a(I501
I80
tp5386
aF26.88
aa(lp5387
g5
a(I344
I302
tp5388
aF26.88
aa(lp5389
g8
a(I333
I85
tp5390
aF26.88
aa(lp5391
g115
a(I504
I300
tp5392
aF26.88
aa(lp5393
g2
a(I501
I80
tp5394
aF26.92
aa(lp5395
g5
a(I344
I302
tp5396
aF26.92
aa(lp5397
g8
a(I333
I85
tp5398
aF26.92
aa(lp5399
g115
a(I503
I300
tp5400
aF26.92
aa(lp5401
g2
a(I501
I80
tp5402
aF26.96
aa(lp5403
g5
a(I344
I302
tp5404
aF26.96
aa(lp5405
g8
a(I333
I85
tp5406
aF26.96
aa(lp5407
g115
a(I502
I299
tp5408
aF26.96
aa(lp5409
g2
a(I501
I80
tp5410
aF27.0
aa(lp5411
g5
a(I344
I302
tp5412
aF27.0
aa(lp5413
g8
a(I333
I85
tp5414
aF27.0
aa(lp5415
g115
a(I502
I299
tp5416
aF27.0
aa(lp5417
g2
a(I501
I80
tp5418
aF27.04
aa(lp5419
g5
a(I343
I302
tp5420
aF27.04
aa(lp5421
g8
a(I333
I85
tp5422
aF27.04
aa(lp5423
g115
a(I502
I299
tp5424
aF27.04
aa(lp5425
g2
a(I501
I80
tp5426
aF27.08
aa(lp5427
g5
a(I343
I302
tp5428
aF27.08
aa(lp5429
g8
a(I333
I85
tp5430
aF27.08
aa(lp5431
g115
a(I502
I300
tp5432
aF27.08
aa(lp5433
g2
a(I501
I80
tp5434
aF27.12
aa(lp5435
g5
a(I341
I302
tp5436
aF27.12
aa(lp5437
g8
a(I333
I85
tp5438
aF27.12
aa(lp5439
g115
a(I502
I299
tp5440
aF27.12
aa(lp5441
g2
a(I501
I80
tp5442
aF27.16
aa(lp5443
g5
a(I340
I302
tp5444
aF27.16
aa(lp5445
g8
a(I333
I85
tp5446
aF27.16
aa(lp5447
g115
a(I502
I299
tp5448
aF27.16
aa(lp5449
g2
a(I501
I80
tp5450
aF27.2
aa(lp5451
g5
a(I339
I302
tp5452
aF27.2
aa(lp5453
g8
a(I333
I85
tp5454
aF27.2
aa(lp5455
g115
a(I503
I300
tp5456
aF27.2
aa(lp5457
g2
a(I501
I80
tp5458
aF27.24
aa(lp5459
g5
a(I338
I302
tp5460
aF27.24
aa(lp5461
g8
a(I333
I85
tp5462
aF27.24
aa(lp5463
g115
a(I503
I299
tp5464
aF27.24
aa(lp5465
g2
a(I501
I80
tp5466
aF27.28
aa(lp5467
g5
a(I337
I302
tp5468
aF27.28
aa(lp5469
g8
a(I333
I85
tp5470
aF27.28
aa(lp5471
g115
a(I504
I299
tp5472
aF27.28
aa(lp5473
g2
a(I501
I80
tp5474
aF27.32
aa(lp5475
g5
a(I335
I302
tp5476
aF27.32
aa(lp5477
g8
a(I333
I85
tp5478
aF27.32
aa(lp5479
g115
a(I505
I300
tp5480
aF27.32
aa(lp5481
g2
a(I501
I80
tp5482
aF27.36
aa(lp5483
g5
a(I334
I302
tp5484
aF27.36
aa(lp5485
g8
a(I333
I85
tp5486
aF27.36
aa(lp5487
g115
a(I505
I299
tp5488
aF27.36
aa(lp5489
g2
a(I501
I80
tp5490
aF27.4
aa(lp5491
g5
a(I334
I302
tp5492
aF27.4
aa(lp5493
g8
a(I333
I85
tp5494
aF27.4
aa(lp5495
g115
a(I506
I299
tp5496
aF27.4
aa(lp5497
g2
a(I501
I80
tp5498
aF27.44
aa(lp5499
g5
a(I333
I302
tp5500
aF27.44
aa(lp5501
g8
a(I333
I85
tp5502
aF27.44
aa(lp5503
g115
a(I507
I300
tp5504
aF27.44
aa(lp5505
g2
a(I501
I80
tp5506
aF27.48
aa(lp5507
g5
a(I333
I302
tp5508
aF27.48
aa(lp5509
g8
a(I333
I85
tp5510
aF27.48
aa(lp5511
g115
a(I508
I300
tp5512
aF27.48
aa(lp5513
g2
a(I501
I80
tp5514
aF27.52
aa(lp5515
g5
a(I333
I302
tp5516
aF27.52
aa(lp5517
g8
a(I333
I85
tp5518
aF27.52
aa(lp5519
g115
a(I508
I299
tp5520
aF27.52
aa(lp5521
g2
a(I501
I80
tp5522
aF27.56
aa(lp5523
g5
a(I333
I302
tp5524
aF27.56
aa(lp5525
g8
a(I333
I85
tp5526
aF27.56
aa(lp5527
g115
a(I508
I299
tp5528
aF27.56
aa(lp5529
g2
a(I501
I80
tp5530
aF27.6
aa(lp5531
g5
a(I333
I302
tp5532
aF27.6
aa(lp5533
g8
a(I333
I85
tp5534
aF27.6
aa(lp5535
g115
a(I509
I300
tp5536
aF27.6
aa(lp5537
g2
a(I501
I80
tp5538
aF27.64
aa(lp5539
g5
a(I334
I302
tp5540
aF27.64
aa(lp5541
g8
a(I333
I85
tp5542
aF27.64
aa(lp5543
g115
a(I509
I300
tp5544
aF27.64
aa(lp5545
g2
a(I501
I80
tp5546
aF27.68
aa(lp5547
g5
a(I335
I302
tp5548
aF27.68
aa(lp5549
g8
a(I333
I85
tp5550
aF27.68
aa(lp5551
g115
a(I508
I299
tp5552
aF27.68
aa(lp5553
g2
a(I501
I80
tp5554
aF27.72
aa(lp5555
g5
a(I336
I302
tp5556
aF27.72
aa(lp5557
g8
a(I333
I85
tp5558
aF27.72
aa(lp5559
g115
a(I508
I299
tp5560
aF27.72
aa(lp5561
g2
a(I501
I80
tp5562
aF27.76
aa(lp5563
g5
a(I337
I302
tp5564
aF27.76
aa(lp5565
g8
a(I333
I85
tp5566
aF27.76
aa(lp5567
g115
a(I508
I299
tp5568
aF27.76
aa(lp5569
g2
a(I501
I80
tp5570
aF27.8
aa(lp5571
g5
a(I338
I302
tp5572
aF27.8
aa(lp5573
g8
a(I333
I85
tp5574
aF27.8
aa(lp5575
g115
a(I507
I299
tp5576
aF27.8
aa(lp5577
g2
a(I501
I80
tp5578
aF27.84
aa(lp5579
g5
a(I340
I302
tp5580
aF27.84
aa(lp5581
g8
a(I333
I85
tp5582
aF27.84
aa(lp5583
g115
a(I507
I300
tp5584
aF27.84
aa(lp5585
g2
a(I501
I80
tp5586
aF27.88
aa(lp5587
g5
a(I341
I302
tp5588
aF27.88
aa(lp5589
g8
a(I333
I85
tp5590
aF27.88
aa(lp5591
g115
a(I506
I299
tp5592
aF27.88
aa(lp5593
g2
a(I501
I80
tp5594
aF27.92
aa(lp5595
g5
a(I342
I302
tp5596
aF27.92
aa(lp5597
g8
a(I333
I85
tp5598
aF27.92
aa(lp5599
g115
a(I505
I299
tp5600
aF27.92
aa(lp5601
g2
a(I501
I80
tp5602
aF27.96
aa(lp5603
g5
a(I343
I302
tp5604
aF27.96
aa(lp5605
g8
a(I333
I85
tp5606
aF27.96
aa(lp5607
g115
a(I505
I300
tp5608
aF27.96
aa(lp5609
g2
a(I501
I80
tp5610
aF28.0
aa(lp5611
g5
a(I344
I302
tp5612
aF28.0
aa(lp5613
g8
a(I333
I85
tp5614
aF28.0
aa(lp5615
g115
a(I504
I299
tp5616
aF28.0
aa(lp5617
g2
a(I501
I80
tp5618
aF28.04
aa(lp5619
g5
a(I344
I302
tp5620
aF28.04
aa(lp5621
g8
a(I333
I85
tp5622
aF28.04
aa(lp5623
g115
a(I504
I300
tp5624
aF28.04
aa(lp5625
g2
a(I501
I80
tp5626
aF28.08
aa(lp5627
g5
a(I344
I302
tp5628
aF28.08
aa(lp5629
g8
a(I333
I85
tp5630
aF28.08
aa(lp5631
g115
a(I503
I300
tp5632
aF28.08
aa(lp5633
g2
a(I501
I80
tp5634
aF28.12
aa(lp5635
g5
a(I344
I302
tp5636
aF28.12
aa(lp5637
g8
a(I333
I85
tp5638
aF28.12
aa(lp5639
g115
a(I502
I299
tp5640
aF28.12
aa(lp5641
g2
a(I501
I80
tp5642
aF28.16
aa(lp5643
g5
a(I344
I302
tp5644
aF28.16
aa(lp5645
g8
a(I333
I85
tp5646
aF28.16
aa(lp5647
g115
a(I502
I299
tp5648
aF28.16
aa(lp5649
g2
a(I501
I80
tp5650
aF28.2
aa(lp5651
g5
a(I343
I302
tp5652
aF28.2
aa(lp5653
g8
a(I333
I85
tp5654
aF28.2
aa(lp5655
g115
a(I502
I299
tp5656
aF28.2
aa(lp5657
g2
a(I501
I80
tp5658
aF28.24
aa(lp5659
g5
a(I342
I302
tp5660
aF28.24
aa(lp5661
g8
a(I333
I85
tp5662
aF28.24
aa(lp5663
g115
a(I502
I299
tp5664
aF28.24
aa(lp5665
g2
a(I501
I80
tp5666
aF28.28
aa(lp5667
g5
a(I341
I302
tp5668
aF28.28
aa(lp5669
g8
a(I333
I85
tp5670
aF28.28
aa(lp5671
g115
a(I502
I299
tp5672
aF28.28
aa(lp5673
g2
a(I501
I80
tp5674
aF28.32
aa(lp5675
g5
a(I340
I302
tp5676
aF28.32
aa(lp5677
g8
a(I333
I85
tp5678
aF28.32
aa(lp5679
g115
a(I503
I300
tp5680
aF28.32
aa(lp5681
g2
a(I501
I80
tp5682
aF28.36
aa(lp5683
g5
a(I339
I302
tp5684
aF28.36
aa(lp5685
g8
a(I333
I85
tp5686
aF28.36
aa(lp5687
g115
a(I503
I299
tp5688
aF28.36
aa(lp5689
g2
a(I501
I80
tp5690
aF28.4
aa(lp5691
g5
a(I338
I302
tp5692
aF28.4
aa(lp5693
g8
a(I333
I85
tp5694
aF28.4
aa(lp5695
g115
a(I504
I300
tp5696
aF28.4
aa(lp5697
g2
a(I501
I80
tp5698
aF28.44
aa(lp5699
g5
a(I336
I302
tp5700
aF28.44
aa(lp5701
g8
a(I333
I85
tp5702
aF28.44
aa(lp5703
g115
a(I504
I299
tp5704
aF28.44
aa(lp5705
g2
a(I501
I80
tp5706
aF28.48
aa(lp5707
g5
a(I335
I302
tp5708
aF28.48
aa(lp5709
g8
a(I333
I85
tp5710
aF28.48
aa(lp5711
g115
a(I505
I300
tp5712
aF28.48
aa(lp5713
g2
a(I501
I80
tp5714
aF28.52
aa(lp5715
g5
a(I334
I302
tp5716
aF28.52
aa(lp5717
g8
a(I333
I85
tp5718
aF28.52
aa(lp5719
g115
a(I506
I300
tp5720
aF28.52
aa(lp5721
g2
a(I501
I80
tp5722
aF28.56
aa(lp5723
g5
a(I334
I302
tp5724
aF28.56
aa(lp5725
g8
a(I333
I85
tp5726
aF28.56
aa(lp5727
g115
a(I506
I299
tp5728
aF28.56
aa(lp5729
g2
a(I501
I80
tp5730
aF28.6
aa(lp5731
g5
a(I333
I302
tp5732
aF28.6
aa(lp5733
g8
a(I333
I85
tp5734
aF28.6
aa(lp5735
g115
a(I507
I299
tp5736
aF28.6
aa(lp5737
g2
a(I501
I80
tp5738
aF28.64
aa(lp5739
g5
a(I333
I302
tp5740
aF28.64
aa(lp5741
g8
a(I333
I85
tp5742
aF28.64
aa(lp5743
g115
a(I508
I300
tp5744
aF28.64
aa(lp5745
g2
a(I501
I80
tp5746
aF28.68
aa(lp5747
g5
a(I333
I302
tp5748
aF28.68
aa(lp5749
g8
a(I333
I85
tp5750
aF28.68
aa(lp5751
g115
a(I508
I299
tp5752
aF28.68
aa(lp5753
g2
a(I501
I80
tp5754
aF28.72
aa(lp5755
g5
a(I333
I302
tp5756
aF28.72
aa(lp5757
g8
a(I333
I85
tp5758
aF28.72
aa(lp5759
g115
a(I508
I299
tp5760
aF28.72
aa(lp5761
g2
a(I501
I80
tp5762
aF28.76
aa(lp5763
g5
a(I334
I302
tp5764
aF28.76
aa(lp5765
g8
a(I333
I85
tp5766
aF28.76
aa(lp5767
g115
a(I508
I299
tp5768
aF28.76
aa(lp5769
g2
a(I501
I80
tp5770
aF28.8
aa(lp5771
g5
a(I334
I302
tp5772
aF28.8
aa(lp5773
g8
a(I333
I85
tp5774
aF28.8
aa(lp5775
g115
a(I508
I299
tp5776
aF28.8
aa(lp5777
g2
a(I501
I80
tp5778
aF28.84
aa(lp5779
g5
a(I336
I302
tp5780
aF28.84
aa(lp5781
g8
a(I333
I85
tp5782
aF28.84
aa(lp5783
g115
a(I508
I299
tp5784
aF28.84
aa(lp5785
g2
a(I501
I80
tp5786
aF28.88
aa(lp5787
g5
a(I337
I302
tp5788
aF28.88
aa(lp5789
g8
a(I333
I85
tp5790
aF28.88
aa(lp5791
g115
a(I508
I299
tp5792
aF28.88
aa(lp5793
g2
a(I501
I80
tp5794
aF28.92
aa(lp5795
g5
a(I338
I302
tp5796
aF28.92
aa(lp5797
g8
a(I333
I85
tp5798
aF28.92
aa(lp5799
g115
a(I508
I300
tp5800
aF28.92
aa(lp5801
g2
a(I501
I80
tp5802
aF28.96
aa(lp5803
g5
a(I339
I302
tp5804
aF28.96
aa(lp5805
g8
a(I333
I85
tp5806
aF28.96
aa(lp5807
g115
a(I507
I299
tp5808
aF28.96
aa(lp5809
g2
a(I501
I80
tp5810
aF29.0
aa(lp5811
g5
a(I340
I302
tp5812
aF29.0
aa(lp5813
g8
a(I333
I85
tp5814
aF29.0
aa(lp5815
g115
a(I506
I299
tp5816
aF29.0
aa(lp5817
g2
a(I501
I80
tp5818
aF29.04
aa(lp5819
g5
a(I342
I302
tp5820
aF29.04
aa(lp5821
g8
a(I333
I85
tp5822
aF29.04
aa(lp5823
g115
a(I506
I300
tp5824
aF29.04
aa(lp5825
g2
a(I501
I80
tp5826
aF29.08
aa(lp5827
g5
a(I342
I302
tp5828
aF29.08
aa(lp5829
g8
a(I333
I85
tp5830
aF29.08
aa(lp5831
g115
a(I505
I299
tp5832
aF29.08
aa(lp5833
g2
a(I501
I80
tp5834
aF29.12
aa(lp5835
g5
a(I343
I302
tp5836
aF29.12
aa(lp5837
g8
a(I333
I85
tp5838
aF29.12
aa(lp5839
g115
a(I504
I299
tp5840
aF29.12
aa(lp5841
g2
a(I501
I80
tp5842
aF29.16
aa(lp5843
g5
a(I344
I302
tp5844
aF29.16
aa(lp5845
g8
a(I333
I85
tp5846
aF29.16
aa(lp5847
g115
a(I504
I300
tp5848
aF29.16
aa(lp5849
g2
a(I501
I80
tp5850
aF29.2
aa(lp5851
g5
a(I344
I302
tp5852
aF29.2
aa(lp5853
g8
a(I333
I85
tp5854
aF29.2
aa(lp5855
g115
a(I503
I300
tp5856
aF29.2
aa(lp5857
g2
a(I501
I80
tp5858
aF29.24
aa(lp5859
g5
a(I344
I302
tp5860
aF29.24
aa(lp5861
g8
a(I333
I85
tp5862
aF29.24
aa(lp5863
g115
a(I503
I300
tp5864
aF29.24
aa(lp5865
g2
a(I501
I80
tp5866
aF29.28
aa(lp5867
g5
a(I344
I302
tp5868
aF29.28
aa(lp5869
g8
a(I333
I85
tp5870
aF29.28
aa(lp5871
g115
a(I503
I300
tp5872
aF29.28
aa(lp5873
g2
a(I501
I80
tp5874
aF29.32
aa(lp5875
g5
a(I343
I302
tp5876
aF29.32
aa(lp5877
g8
a(I333
I85
tp5878
aF29.32
aa(lp5879
g115
a(I502
I299
tp5880
aF29.32
aa(lp5881
g2
a(I501
I80
tp5882
aF29.36
aa(lp5883
g5
a(I343
I302
tp5884
aF29.36
aa(lp5885
g8
a(I333
I85
tp5886
aF29.36
aa(lp5887
g115
a(I502
I299
tp5888
aF29.36
aa(lp5889
g2
a(I501
I80
tp5890
aF29.4
aa(lp5891
g5
a(I342
I302
tp5892
aF29.4
aa(lp5893
g8
a(I333
I85
tp5894
aF29.4
aa(lp5895
g115
a(I502
I299
tp5896
aF29.4
aa(lp5897
g2
a(I501
I80
tp5898
aF29.44
aa(lp5899
g5
a(I341
I302
tp5900
aF29.44
aa(lp5901
g8
a(I333
I85
tp5902
aF29.44
aa(lp5903
g115
a(I503
I300
tp5904
aF29.44
aa(lp5905
g2
a(I501
I80
tp5906
aF29.48
aa(lp5907
g5
a(I340
I302
tp5908
aF29.48
aa(lp5909
g8
a(I333
I85
tp5910
aF29.48
aa(lp5911
g115
a(I503
I300
tp5912
aF29.48
aa(lp5913
g2
a(I501
I80
tp5914
aF29.52
aa(lp5915
g5
a(I338
I302
tp5916
aF29.52
aa(lp5917
g8
a(I333
I85
tp5918
aF29.52
aa(lp5919
g115
a(I504
I300
tp5920
aF29.52
aa(lp5921
g2
a(I501
I80
tp5922
aF29.56
aa(lp5923
g5
a(I337
I302
tp5924
aF29.56
aa(lp5925
g8
a(I333
I85
tp5926
aF29.56
aa(lp5927
g115
a(I504
I300
tp5928
aF29.56
aa(lp5929
g2
a(I501
I80
tp5930
aF29.6
aa(lp5931
g5
a(I336
I302
tp5932
aF29.6
aa(lp5933
g8
a(I333
I85
tp5934
aF29.6
aa(lp5935
g115
a(I505
I300
tp5936
aF29.6
aa(lp5937
g2
a(I501
I80
tp5938
aF29.64
aa(lp5939
g5
a(I335
I302
tp5940
aF29.64
aa(lp5941
g8
a(I333
I85
tp5942
aF29.64
aa(lp5943
g115
a(I505
I299
tp5944
aF29.64
aa(lp5945
g2
a(I501
I80
tp5946
aF29.68
aa(lp5947
g5
a(I334
I302
tp5948
aF29.68
aa(lp5949
g8
a(I333
I85
tp5950
aF29.68
aa(lp5951
g115
a(I506
I300
tp5952
aF29.68
aa(lp5953
g2
a(I501
I80
tp5954
aF29.72
aa(lp5955
g5
a(I333
I302
tp5956
aF29.72
aa(lp5957
g8
a(I333
I85
tp5958
aF29.72
aa(lp5959
g115
a(I507
I300
tp5960
aF29.72
aa(lp5961
g2
a(I501
I80
tp5962
aF29.76
aa(lp5963
g5
a(I333
I302
tp5964
aF29.76
aa(lp5965
g8
a(I333
I85
tp5966
aF29.76
aa(lp5967
g115
a(I507
I299
tp5968
aF29.76
aa(lp5969
g2
a(I501
I80
tp5970
aF29.8
aa(lp5971
g5
a(I333
I302
tp5972
aF29.8
aa(lp5973
g8
a(I333
I85
tp5974
aF29.8
aa(lp5975
g115
a(I508
I299
tp5976
aF29.8
aa(lp5977
g2
a(I501
I80
tp5978
aF29.84
aa(lp5979
g5
a(I333
I302
tp5980
aF29.84
aa(lp5981
g8
a(I333
I85
tp5982
aF29.84
aa(lp5983
g115
a(I508
I299
tp5984
aF29.84
aa(lp5985
g2
a(I501
I80
tp5986
aF29.88
aa(lp5987
g5
a(I333
I302
tp5988
aF29.88
aa(lp5989
g8
a(I333
I85
tp5990
aF29.88
aa(lp5991
g115
a(I508
I299
tp5992
aF29.88
aa(lp5993
g2
a(I501
I80
tp5994
aF29.92
aa(lp5995
g5
a(I334
I302
tp5996
aF29.92
aa(lp5997
g8
a(I333
I85
tp5998
aF29.92
aa(lp5999
g115
a(I508
I299
tp6000
aF29.92
aa(lp6001
g2
a(I501
I80
tp6002
aF29.96
aa(lp6003
g5
a(I335
I302
tp6004
aF29.96
aa(lp6005
g8
a(I333
I85
tp6006
aF29.96
aa(lp6007
g115
a(I508
I299
tp6008
aF29.96
aa(lp6009
g2
a(I501
I80
tp6010
aF30.0
aa(lp6011
g5
a(I336
I302
tp6012
aF30.0
aa(lp6013
g8
a(I333
I85
tp6014
aF30.0
aa(lp6015
g115
a(I508
I299
tp6016
aF30.0
aa(lp6017
g2
a(I501
I80
tp6018
aF30.04
aa(lp6019
g5
a(I337
I302
tp6020
aF30.04
aa(lp6021
g8
a(I333
I85
tp6022
aF30.04
aa(lp6023
g115
a(I508
I300
tp6024
aF30.04
aa(lp6025
g2
a(I501
I80
tp6026
aF30.08
aa(lp6027
g5
a(I338
I302
tp6028
aF30.08
aa(lp6029
g8
a(I333
I85
tp6030
aF30.08
aa(lp6031
g115
a(I507
I299
tp6032
aF30.08
aa(lp6033
g2
a(I501
I80
tp6034
aF30.12
aa(lp6035
g5
a(I339
I302
tp6036
aF30.12
aa(lp6037
g8
a(I333
I85
tp6038
aF30.12
aa(lp6039
g115
a(I507
I300
tp6040
aF30.12
aa(lp6041
g2
a(I501
I80
tp6042
aF30.16
aa(lp6043
g5
a(I341
I302
tp6044
aF30.16
aa(lp6045
g8
a(I333
I85
tp6046
aF30.16
aa(lp6047
g115
a(I506
I299
tp6048
aF30.16
aa(lp6049
g2
a(I501
I80
tp6050
aF30.2
aa(lp6051
g5
a(I342
I302
tp6052
aF30.2
aa(lp6053
g8
a(I333
I85
tp6054
aF30.2
aa(lp6055
g115
a(I506
I300
tp6056
aF30.2
aa(lp6057
g2
a(I501
I80
tp6058
aF30.24
aa(lp6059
g5
a(I343
I302
tp6060
aF30.24
aa(lp6061
g8
a(I333
I85
tp6062
aF30.24
aa(lp6063
g115
a(I505
I300
tp6064
aF30.24
aa(lp6065
g2
a(I501
I80
tp6066
aF30.28
aa(lp6067
g5
a(I344
I302
tp6068
aF30.28
aa(lp6069
g8
a(I333
I85
tp6070
aF30.28
aa(lp6071
g115
a(I504
I299
tp6072
aF30.28
aa(lp6073
g2
a(I501
I80
tp6074
aF30.32
aa(lp6075
g5
a(I344
I302
tp6076
aF30.32
aa(lp6077
g8
a(I333
I85
tp6078
aF30.32
aa(lp6079
g115
a(I504
I300
tp6080
aF30.32
aa(lp6081
g2
a(I501
I80
tp6082
aF30.36
aa(lp6083
g5
a(I344
I302
tp6084
aF30.36
aa(lp6085
g8
a(I333
I85
tp6086
aF30.36
aa(lp6087
g115
a(I503
I299
tp6088
aF30.36
aa(lp6089
g2
a(I501
I80
tp6090
aF30.4
aa(lp6091
g5
a(I344
I302
tp6092
aF30.4
aa(lp6093
g8
a(I333
I85
tp6094
aF30.4
aa(lp6095
g115
a(I503
I300
tp6096
aF30.4
aa(lp6097
g2
a(I501
I80
tp6098
aF30.44
aa(lp6099
g5
a(I344
I302
tp6100
aF30.44
aa(lp6101
g8
a(I333
I85
tp6102
aF30.44
aa(lp6103
g115
a(I503
I300
tp6104
aF30.44
aa(lp6105
g2
a(I501
I80
tp6106
aF30.48
aa(lp6107
g5
a(I343
I302
tp6108
aF30.48
aa(lp6109
g8
a(I333
I85
tp6110
aF30.48
aa(lp6111
g115
a(I502
I299
tp6112
aF30.48
aa(lp6113
g2
a(I501
I80
tp6114
aF30.52
aa(lp6115
g5
a(I343
I302
tp6116
aF30.52
aa(lp6117
g8
a(I333
I85
tp6118
aF30.52
aa(lp6119
g115
a(I502
I299
tp6120
aF30.52
aa(lp6121
g2
a(I501
I80
tp6122
aF30.56
aa(lp6123
g5
a(I341
I302
tp6124
aF30.56
aa(lp6125
g8
a(I333
I85
tp6126
aF30.56
aa(lp6127
g115
a(I503
I300
tp6128
aF30.56
aa(lp6129
g2
a(I501
I80
tp6130
aF30.6
aa(lp6131
g5
a(I341
I302
tp6132
aF30.6
aa(lp6133
g8
a(I333
I85
tp6134
aF30.6
aa(lp6135
g115
a(I503
I300
tp6136
aF30.6
aa(lp6137
g2
a(I501
I80
tp6138
aF30.64
aa(lp6139
g5
a(I339
I302
tp6140
aF30.64
aa(lp6141
g8
a(I333
I85
tp6142
aF30.64
aa(lp6143
g115
a(I504
I300
tp6144
aF30.64
aa(lp6145
g2
a(I501
I80
tp6146
aF30.68
aa(lp6147
g5
a(I338
I302
tp6148
aF30.68
aa(lp6149
g8
a(I333
I85
tp6150
aF30.68
aa(lp6151
g115
a(I504
I300
tp6152
aF30.68
aa(lp6153
g2
a(I501
I80
tp6154
aF30.72
aa(lp6155
g5
a(I337
I302
tp6156
aF30.72
aa(lp6157
g8
a(I333
I85
tp6158
aF30.72
aa(lp6159
g115
a(I504
I299
tp6160
aF30.72
aa(lp6161
g2
a(I501
I80
tp6162
aF30.76
aa(lp6163
g5
a(I336
I302
tp6164
aF30.76
aa(lp6165
g8
a(I333
I85
tp6166
aF30.76
aa(lp6167
g115
a(I505
I300
tp6168
aF30.76
aa(lp6169
g2
a(I501
I80
tp6170
aF30.8
aa(lp6171
g5
a(I335
I302
tp6172
aF30.8
aa(lp6173
g8
a(I333
I85
tp6174
aF30.8
aa(lp6175
g115
a(I506
I300
tp6176
aF30.8
aa(lp6177
g2
a(I501
I80
tp6178
aF30.84
aa(lp6179
g5
a(I334
I302
tp6180
aF30.84
aa(lp6181
g8
a(I333
I85
tp6182
aF30.84
aa(lp6183
g115
a(I506
I299
tp6184
aF30.84
aa(lp6185
g2
a(I501
I80
tp6186
aF30.88
aa(lp6187
g5
a(I333
I302
tp6188
aF30.88
aa(lp6189
g8
a(I333
I85
tp6190
aF30.88
aa(lp6191
g115
a(I507
I300
tp6192
aF30.88
aa(lp6193
g2
a(I501
I80
tp6194
aF30.92
aa(lp6195
g5
a(I333
I302
tp6196
aF30.92
aa(lp6197
g8
a(I333
I85
tp6198
aF30.92
aa(lp6199
g115
a(I507
I299
tp6200
aF30.92
aa(lp6201
g2
a(I501
I80
tp6202
aF30.96
aa(lp6203
g5
a(I333
I302
tp6204
aF30.96
aa(lp6205
g8
a(I333
I85
tp6206
aF30.96
aa(lp6207
g115
a(I508
I300
tp6208
aF30.96
aa(lp6209
g2
a(I501
I80
tp6210
aF31.0
aa(lp6211
g5
a(I333
I302
tp6212
aF31.0
aa(lp6213
g8
a(I333
I85
tp6214
aF31.0
aa(lp6215
g115
a(I508
I299
tp6216
aF31.0
aa(lp6217
g2
a(I501
I80
tp6218
aF31.04
aa(lp6219
g5
a(I334
I302
tp6220
aF31.04
aa(lp6221
g8
a(I333
I85
tp6222
aF31.04
aa(lp6223
g115
a(I508
I299
tp6224
aF31.04
aa(lp6225
g2
a(I501
I80
tp6226
aF31.08
aa(lp6227
g5
a(I334
I302
tp6228
aF31.08
aa(lp6229
g8
a(I333
I85
tp6230
aF31.08
aa(lp6231
g115
a(I508
I299
tp6232
aF31.08
aa(lp6233
g2
a(I501
I80
tp6234
aF31.12
aa(lp6235
g5
a(I335
I302
tp6236
aF31.12
aa(lp6237
g8
a(I333
I85
tp6238
aF31.12
aa(lp6239
g115
a(I508
I299
tp6240
aF31.12
aa(lp6241
g2
a(I501
I80
tp6242
aF31.16
aa(lp6243
g5
a(I336
I302
tp6244
aF31.16
aa(lp6245
g8
a(I333
I85
tp6246
aF31.16
aa(lp6247
g115
a(I508
I300
tp6248
aF31.16
aa(lp6249
g2
a(I501
I80
tp6250
aF31.2
aa(lp6251
g5
a(I337
I302
tp6252
aF31.2
aa(lp6253
g8
a(I333
I85
tp6254
aF31.2
aa(lp6255
g115
a(I508
I300
tp6256
aF31.2
aa(lp6257
g2
a(I501
I80
tp6258
aF31.24
aa(lp6259
g5
a(I339
I302
tp6260
aF31.24
aa(lp6261
g8
a(I333
I85
tp6262
aF31.24
aa(lp6263
g115
a(I507
I299
tp6264
aF31.24
aa(lp6265
g2
a(I501
I80
tp6266
aF31.28
aa(lp6267
g5
a(I340
I302
tp6268
aF31.28
aa(lp6269
g8
a(I333
I85
tp6270
aF31.28
aa(lp6271
g115
a(I507
I300
tp6272
aF31.28
aa(lp6273
g2
a(I501
I80
tp6274
aF31.32
aa(lp6275
g5
a(I341
I302
tp6276
aF31.32
aa(lp6277
g8
a(I333
I85
tp6278
aF31.32
aa(lp6279
g115
a(I506
I300
tp6280
aF31.32
aa(lp6281
g2
a(I501
I80
tp6282
aF31.36
aa(lp6283
g5
a(I342
I302
tp6284
aF31.36
aa(lp6285
g8
a(I333
I85
tp6286
aF31.36
aa(lp6287
g115
a(I505
I299
tp6288
aF31.36
aa(lp6289
g2
a(I501
I80
tp6290
aF31.4
aa(lp6291
g5
a(I343
I302
tp6292
aF31.4
aa(lp6293
g8
a(I333
I85
tp6294
aF31.4
aa(lp6295
g115
a(I505
I300
tp6296
aF31.4
aa(lp6297
g2
a(I501
I80
tp6298
aF31.44
aa(lp6299
g5
a(I343
I302
tp6300
aF31.44
aa(lp6301
g8
a(I333
I85
tp6302
aF31.44
aa(lp6303
g115
a(I504
I300
tp6304
aF31.44
aa(lp6305
g2
a(I501
I80
tp6306
aF31.48
aa(lp6307
g5
a(I344
I302
tp6308
aF31.48
aa(lp6309
g8
a(I333
I85
tp6310
aF31.48
aa(lp6311
g115
a(I504
I300
tp6312
aF31.48
aa(lp6313
g2
a(I501
I80
tp6314
aF31.52
aa(lp6315
g5
a(I344
I302
tp6316
aF31.52
aa(lp6317
g8
a(I333
I85
tp6318
aF31.52
aa(lp6319
g115
a(I503
I300
tp6320
aF31.52
aa(lp6321
g2
a(I501
I80
tp6322
aF31.56
aa(lp6323
g5
a(I344
I302
tp6324
aF31.56
aa(lp6325
g8
a(I333
I85
tp6326
aF31.56
aa(lp6327
g115
a(I503
I300
tp6328
aF31.56
aa(lp6329
g2
a(I501
I80
tp6330
aF31.6
aa(lp6331
g5
a(I343
I302
tp6332
aF31.6
aa(lp6333
g8
a(I333
I85
tp6334
aF31.6
aa(lp6335
g115
a(I503
I300
tp6336
aF31.6
aa(lp6337
g2
a(I501
I80
tp6338
aF31.64
aa(lp6339
g5
a(I342
I302
tp6340
aF31.64
aa(lp6341
g8
a(I333
I85
tp6342
aF31.64
aa(lp6343
g115
a(I503
I300
tp6344
aF31.64
aa(lp6345
g2
a(I501
I80
tp6346
aF31.68
aa(lp6347
g5
a(I342
I302
tp6348
aF31.68
aa(lp6349
g8
a(I333
I85
tp6350
aF31.68
aa(lp6351
g115
a(I503
I300
tp6352
aF31.68
aa(lp6353
g2
a(I501
I80
tp6354
aF31.72
aa(lp6355
g5
a(I341
I302
tp6356
aF31.72
aa(lp6357
g8
a(I333
I85
tp6358
aF31.72
aa(lp6359
g115
a(I503
I300
tp6360
aF31.72
aa(lp6361
g2
a(I501
I80
tp6362
aF31.76
aa(lp6363
g5
a(I340
I302
tp6364
aF31.76
aa(lp6365
g8
a(I333
I85
tp6366
aF31.76
aa(lp6367
g115
a(I503
I300
tp6368
aF31.76
aa(lp6369
g2
a(I501
I80
tp6370
aF31.8
aa(lp6371
g5
a(I339
I302
tp6372
aF31.8
aa(lp6373
g8
a(I333
I85
tp6374
aF31.8
aa(lp6375
g115
a(I503
I299
tp6376
aF31.8
aa(lp6377
g2
a(I501
I80
tp6378
aF31.84
aa(lp6379
g5
a(I337
I302
tp6380
aF31.84
aa(lp6381
g8
a(I333
I85
tp6382
aF31.84
aa(lp6383
g115
a(I504
I300
tp6384
aF31.84
aa(lp6385
g2
a(I501
I80
tp6386
aF31.88
aa(lp6387
g5
a(I336
I302
tp6388
aF31.88
aa(lp6389
g8
a(I333
I85
tp6390
aF31.88
aa(lp6391
g115
a(I504
I299
tp6392
aF31.88
aa(lp6393
g2
a(I501
I80
tp6394
aF31.92
aa(lp6395
g5
a(I335
I302
tp6396
aF31.92
aa(lp6397
g8
a(I333
I85
tp6398
aF31.92
aa(lp6399
g115
a(I505
I300
tp6400
aF31.92
aa(lp6401
g2
a(I501
I80
tp6402
aF31.96
aa(lp6403
g5
a(I334
I302
tp6404
aF31.96
aa(lp6405
g8
a(I333
I85
tp6406
aF31.96
aa(lp6407
g115
a(I506
I300
tp6408
aF31.96
aa(lp6409
g2
a(I501
I80
tp6410
aF32.0
aa(lp6411
g5
a(I334
I302
tp6412
aF32.0
aa(lp6413
g8
a(I333
I85
tp6414
aF32.0
aa(lp6415
g115
a(I506
I299
tp6416
aF32.0
aa(lp6417
g2
a(I501
I80
tp6418
aF32.04
aa(lp6419
g5
a(I333
I302
tp6420
aF32.04
aa(lp6421
g8
a(I333
I85
tp6422
aF32.04
aa(lp6423
g115
a(I507
I300
tp6424
aF32.04
aa(lp6425
g2
a(I501
I80
tp6426
aF32.08
aa(lp6427
g5
a(I333
I302
tp6428
aF32.08
aa(lp6429
g8
a(I333
I85
tp6430
aF32.08
aa(lp6431
g115
a(I507
I299
tp6432
aF32.08
aa(lp6433
g2
a(I501
I80
tp6434
aF32.12
aa(lp6435
g5
a(I333
I302
tp6436
aF32.12
aa(lp6437
g8
a(I333
I85
tp6438
aF32.12
aa(lp6439
g115
a(I508
I300
tp6440
aF32.12
aa(lp6441
g2
a(I501
I80
tp6442
aF32.16
aa(lp6443
g5
a(I333
I302
tp6444
aF32.16
aa(lp6445
g8
a(I333
I85
tp6446
aF32.16
aa(lp6447
g115
a(I508
I299
tp6448
aF32.16
aa(lp6449
g2
a(I501
I80
tp6450
aF32.2
aa(lp6451
g5
a(I334
I302
tp6452
aF32.2
aa(lp6453
g8
a(I333
I85
tp6454
aF32.2
aa(lp6455
g115
a(I508
I299
tp6456
aF32.2
aa(lp6457
g2
a(I501
I80
tp6458
aF32.24
aa(lp6459
g5
a(I335
I302
tp6460
aF32.24
aa(lp6461
g8
a(I333
I85
tp6462
aF32.24
aa(lp6463
g115
a(I508
I299
tp6464
aF32.24
aa(lp6465
g2
a(I501
I80
tp6466
aF32.28
aa(lp6467
g5
a(I336
I302
tp6468
aF32.28
aa(lp6469
g8
a(I333
I85
tp6470
aF32.28
aa(lp6471
g115
a(I508
I300
tp6472
aF32.28
aa(lp6473
g2
a(I501
I80
tp6474
aF32.32
aa(lp6475
g5
a(I337
I302
tp6476
aF32.32
aa(lp6477
g8
a(I333
I85
tp6478
aF32.32
aa(lp6479
g115
a(I508
I300
tp6480
aF32.32
aa(lp6481
g2
a(I501
I80
tp6482
aF32.36
aa(lp6483
g5
a(I338
I302
tp6484
aF32.36
aa(lp6485
g8
a(I333
I85
tp6486
aF32.36
aa(lp6487
g115
a(I507
I299
tp6488
aF32.36
aa(lp6489
g2
a(I501
I80
tp6490
aF32.4
aa(lp6491
g5
a(I339
I302
tp6492
aF32.4
aa(lp6493
g8
a(I333
I85
tp6494
aF32.4
aa(lp6495
g115
a(I507
I300
tp6496
aF32.4
aa(lp6497
g2
a(I501
I80
tp6498
aF32.44
aa(lp6499
g5
a(I341
I302
tp6500
aF32.44
aa(lp6501
g8
a(I333
I85
tp6502
aF32.44
aa(lp6503
g115
a(I506
I299
tp6504
aF32.44
aa(lp6505
g2
a(I501
I80
tp6506
aF32.48
aa(lp6507
g5
a(I341
I302
tp6508
aF32.48
aa(lp6509
g8
a(I333
I85
tp6510
aF32.48
aa(lp6511
g115
a(I506
I300
tp6512
aF32.48
aa(lp6513
g2
a(I501
I80
tp6514
aF32.52
aa(lp6515
g5
a(I342
I302
tp6516
aF32.52
aa(lp6517
g8
a(I333
I85
tp6518
aF32.52
aa(lp6519
g115
a(I505
I299
tp6520
aF32.52
aa(lp6521
g2
a(I501
I80
tp6522
aF32.56
aa(lp6523
g5
a(I343
I302
tp6524
aF32.56
aa(lp6525
g8
a(I333
I85
tp6526
aF32.56
aa(lp6527
g115
a(I504
I299
tp6528
aF32.56
aa(lp6529
g2
a(I501
I80
tp6530
aF32.6
aa(lp6531
g5
a(I343
I302
tp6532
aF32.6
aa(lp6533
g8
a(I333
I85
tp6534
aF32.6
aa(lp6535
g115
a(I504
I300
tp6536
aF32.6
aa(lp6537
g2
a(I501
I80
tp6538
aF32.64
aa(lp6539
g5
a(I344
I302
tp6540
aF32.64
aa(lp6541
g8
a(I333
I85
tp6542
aF32.64
aa(lp6543
g115
a(I503
I299
tp6544
aF32.64
aa(lp6545
g2
a(I501
I80
tp6546
aF32.68
aa(lp6547
g5
a(I344
I302
tp6548
aF32.68
aa(lp6549
g8
a(I333
I85
tp6550
aF32.68
aa(lp6551
g115
a(I503
I299
tp6552
aF32.68
aa(lp6553
g2
a(I501
I80
tp6554
aF32.72
aa(lp6555
g5
a(I344
I302
tp6556
aF32.72
aa(lp6557
g8
a(I333
I85
tp6558
aF32.72
aa(lp6559
g115
a(I503
I300
tp6560
aF32.72
aa(lp6561
g2
a(I501
I80
tp6562
aF32.76
aa(lp6563
g5
a(I343
I302
tp6564
aF32.76
aa(lp6565
g8
a(I333
I85
tp6566
aF32.76
aa(lp6567
g115
a(I503
I300
tp6568
aF32.76
aa(lp6569
g2
a(I501
I80
tp6570
aF32.8
aa(lp6571
g5
a(I342
I302
tp6572
aF32.8
aa(lp6573
g8
a(I333
I85
tp6574
aF32.8
aa(lp6575
g115
a(I503
I300
tp6576
aF32.8
aa(lp6577
g2
a(I501
I80
tp6578
aF32.84
aa(lp6579
g5
a(I341
I302
tp6580
aF32.84
aa(lp6581
g8
a(I333
I85
tp6582
aF32.84
aa(lp6583
g115
a(I503
I300
tp6584
aF32.84
aa(lp6585
g2
a(I501
I80
tp6586
aF32.88
aa(lp6587
g5
a(I340
I302
tp6588
aF32.88
aa(lp6589
g8
a(I333
I85
tp6590
aF32.88
aa(lp6591
g115
a(I503
I300
tp6592
aF32.88
aa(lp6593
g2
a(I501
I80
tp6594
aF32.92
aa(lp6595
g5
a(I340
I302
tp6596
aF32.92
aa(lp6597
g8
a(I333
I85
tp6598
aF32.92
aa(lp6599
g115
a(I503
I299
tp6600
aF32.92
aa(lp6601
g2
a(I501
I80
tp6602
aF32.96
aa(lp6603
g5
a(I338
I302
tp6604
aF32.96
aa(lp6605
g8
a(I333
I85
tp6606
aF32.96
aa(lp6607
g115
a(I504
I300
tp6608
aF32.96
aa(lp6609
g2
a(I501
I80
tp6610
aF33.0
aa(lp6611
g5
a(I337
I302
tp6612
aF33.0
aa(lp6613
g8
a(I333
I85
tp6614
aF33.0
aa(lp6615
g115
a(I504
I299
tp6616
aF33.0
aa(lp6617
g2
a(I501
I80
tp6618
aF33.04
aa(lp6619
g5
a(I336
I302
tp6620
aF33.04
aa(lp6621
g8
a(I333
I85
tp6622
aF33.04
aa(lp6623
g115
a(I505
I300
tp6624
aF33.04
aa(lp6625
g2
a(I501
I80
tp6626
aF33.08
aa(lp6627
g5
a(I335
I302
tp6628
aF33.08
aa(lp6629
g8
a(I333
I85
tp6630
aF33.08
aa(lp6631
g115
a(I505
I299
tp6632
aF33.08
aa(lp6633
g2
a(I501
I80
tp6634
aF33.12
aa(lp6635
g5
a(I334
I302
tp6636
aF33.12
aa(lp6637
g8
a(I333
I85
tp6638
aF33.12
aa(lp6639
g115
a(I506
I300
tp6640
aF33.12
aa(lp6641
g2
a(I501
I80
tp6642
aF33.16
aa(lp6643
g5
a(I334
I302
tp6644
aF33.16
aa(lp6645
g8
a(I333
I85
tp6646
aF33.16
aa(lp6647
g115
a(I507
I300
tp6648
aF33.16
aa(lp6649
g2
a(I501
I80
tp6650
aF33.2
aa(lp6651
g5
a(I333
I302
tp6652
aF33.2
aa(lp6653
g8
a(I333
I85
tp6654
aF33.2
aa(lp6655
g115
a(I507
I299
tp6656
aF33.2
aa(lp6657
g2
a(I501
I80
tp6658
aF33.24
aa(lp6659
g5
a(I333
I302
tp6660
aF33.24
aa(lp6661
g8
a(I333
I85
tp6662
aF33.24
aa(lp6663
g115
a(I508
I300
tp6664
aF33.24
aa(lp6665
g2
a(I501
I80
tp6666
aF33.28
aa(lp6667
g5
a(I333
I302
tp6668
aF33.28
aa(lp6669
g8
a(I333
I85
tp6670
aF33.28
aa(lp6671
g115
a(I508
I300
tp6672
aF33.28
aa(lp6673
g2
a(I501
I80
tp6674
aF33.32
aa(lp6675
g5
a(I334
I302
tp6676
aF33.32
aa(lp6677
g8
a(I333
I85
tp6678
aF33.32
aa(lp6679
g115
a(I508
I299
tp6680
aF33.32
aa(lp6681
g2
a(I501
I80
tp6682
aF33.36
aa(lp6683
g5
a(I334
I302
tp6684
aF33.36
aa(lp6685
g8
a(I333
I85
tp6686
aF33.36
aa(lp6687
g115
a(I508
I299
tp6688
aF33.36
aa(lp6689
g2
a(I501
I80
tp6690
aF33.4
aa(lp6691
g5
a(I335
I302
tp6692
aF33.4
aa(lp6693
g8
a(I333
I85
tp6694
aF33.4
aa(lp6695
g115
a(I508
I299
tp6696
aF33.4
aa(lp6697
g2
a(I501
I80
tp6698
aF33.44
aa(lp6699
g5
a(I336
I302
tp6700
aF33.44
aa(lp6701
g8
a(I333
I85
tp6702
aF33.44
aa(lp6703
g115
a(I508
I300
tp6704
aF33.44
aa(lp6705
g2
a(I501
I80
tp6706
aF33.48
aa(lp6707
g5
a(I337
I302
tp6708
aF33.48
aa(lp6709
g8
a(I333
I85
tp6710
aF33.48
aa(lp6711
g115
a(I508
I300
tp6712
aF33.48
aa(lp6713
g2
a(I501
I80
tp6714
aF33.52
aa(lp6715
g5
a(I338
I302
tp6716
aF33.52
aa(lp6717
g8
a(I333
I85
tp6718
aF33.52
aa(lp6719
g115
a(I507
I299
tp6720
aF33.52
aa(lp6721
g2
a(I501
I80
tp6722
aF33.56
aa(lp6723
g5
a(I340
I302
tp6724
aF33.56
aa(lp6725
g8
a(I333
I85
tp6726
aF33.56
aa(lp6727
g115
a(I507
I300
tp6728
aF33.56
aa(lp6729
g2
a(I501
I80
tp6730
aF33.6
aa(lp6731
g5
a(I341
I302
tp6732
aF33.6
aa(lp6733
g8
a(I333
I85
tp6734
aF33.6
aa(lp6735
g115
a(I506
I299
tp6736
aF33.6
aa(lp6737
g2
a(I501
I80
tp6738
aF33.64
aa(lp6739
g5
a(I341
I302
tp6740
aF33.64
aa(lp6741
g8
a(I333
I85
tp6742
aF33.64
aa(lp6743
g115
a(I506
I300
tp6744
aF33.64
aa(lp6745
g2
a(I501
I80
tp6746
aF33.68
aa(lp6747
g5
a(I342
I302
tp6748
aF33.68
aa(lp6749
g8
a(I333
I85
tp6750
aF33.68
aa(lp6751
g115
a(I505
I300
tp6752
aF33.68
aa(lp6753
g2
a(I501
I80
tp6754
aF33.72
aa(lp6755
g5
a(I343
I302
tp6756
aF33.72
aa(lp6757
g8
a(I333
I85
tp6758
aF33.72
aa(lp6759
g115
a(I505
I300
tp6760
aF33.72
aa(lp6761
g2
a(I501
I80
tp6762
aF33.76
aa(lp6763
g5
a(I343
I302
tp6764
aF33.76
aa(lp6765
g8
a(I333
I85
tp6766
aF33.76
aa(lp6767
g115
a(I504
I300
tp6768
aF33.76
aa(lp6769
g2
a(I501
I80
tp6770
aF33.8
aa(lp6771
g5
a(I344
I302
tp6772
aF33.8
aa(lp6773
g8
a(I333
I85
tp6774
aF33.8
aa(lp6775
g115
a(I504
I300
tp6776
aF33.8
aa(lp6777
g2
a(I501
I80
tp6778
aF33.84
aa(lp6779
g5
a(I344
I302
tp6780
aF33.84
aa(lp6781
g8
a(I333
I85
tp6782
aF33.84
aa(lp6783
g115
a(I503
I299
tp6784
aF33.84
aa(lp6785
g2
a(I501
I80
tp6786
aF33.88
aa(lp6787
g5
a(I343
I302
tp6788
aF33.88
aa(lp6789
g8
a(I333
I85
tp6790
aF33.88
aa(lp6791
g115
a(I503
I300
tp6792
aF33.88
aa(lp6793
g2
a(I501
I80
tp6794
aF33.92
aa(lp6795
g5
a(I343
I302
tp6796
aF33.92
aa(lp6797
g8
a(I333
I85
tp6798
aF33.92
aa(lp6799
g115
a(I503
I300
tp6800
aF33.92
aa(lp6801
g2
a(I501
I80
tp6802
aF33.96
aa(lp6803
g5
a(I342
I302
tp6804
aF33.96
aa(lp6805
g8
a(I333
I85
tp6806
aF33.96
aa(lp6807
g115
a(I503
I300
tp6808
aF33.96
aa(lp6809
g2
a(I501
I80
tp6810
aF34.0
aa(lp6811
g5
a(I341
I302
tp6812
aF34.0
aa(lp6813
g8
a(I333
I85
tp6814
aF34.0
aa(lp6815
g115
a(I503
I300
tp6816
aF34.0
aa(lp6817
g2
a(I501
I80
tp6818
aF34.04
aa(lp6819
g5
a(I340
I302
tp6820
aF34.04
aa(lp6821
g8
a(I333
I85
tp6822
aF34.04
aa(lp6823
g115
a(I503
I300
tp6824
aF34.04
aa(lp6825
g2
a(I501
I80
tp6826
aF34.08
aa(lp6827
g5
a(I339
I302
tp6828
aF34.08
aa(lp6829
g8
a(I333
I85
tp6830
aF34.08
aa(lp6831
g115
a(I504
I300
tp6832
aF34.08
aa(lp6833
g2
a(I501
I80
tp6834
aF34.12
aa(lp6835
g5
a(I338
I302
tp6836
aF34.12
aa(lp6837
g8
a(I333
I85
tp6838
aF34.12
aa(lp6839
g115
a(I504
I300
tp6840
aF34.12
aa(lp6841
g2
a(I501
I80
tp6842
aF34.16
aa(lp6843
g5
a(I337
I302
tp6844
aF34.16
aa(lp6845
g8
a(I333
I85
tp6846
aF34.16
aa(lp6847
g115
a(I505
I300
tp6848
aF34.16
aa(lp6849
g2
a(I501
I80
tp6850
aF34.2
aa(lp6851
g5
a(I336
I302
tp6852
aF34.2
aa(lp6853
g8
a(I333
I85
tp6854
aF34.2
aa(lp6855
g115
a(I505
I300
tp6856
aF34.2
aa(lp6857
g2
a(I501
I80
tp6858
aF34.24
aa(lp6859
g5
a(I335
I302
tp6860
aF34.24
aa(lp6861
g8
a(I333
I85
tp6862
aF34.24
aa(lp6863
g115
a(I505
I299
tp6864
aF34.24
aa(lp6865
g2
a(I501
I80
tp6866
aF34.28
aa(lp6867
g5
a(I334
I302
tp6868
aF34.28
aa(lp6869
g8
a(I333
I85
tp6870
aF34.28
aa(lp6871
g115
a(I506
I300
tp6872
aF34.28
aa(lp6873
g2
a(I501
I80
tp6874
aF34.32
aa(lp6875
g5
a(I334
I302
tp6876
aF34.32
aa(lp6877
g8
a(I333
I85
tp6878
aF34.32
aa(lp6879
g115
a(I507
I300
tp6880
aF34.32
aa(lp6881
g2
a(I501
I80
tp6882
aF34.36
aa(lp6883
g5
a(I333
I302
tp6884
aF34.36
aa(lp6885
g8
a(I333
I85
tp6886
aF34.36
aa(lp6887
g115
a(I507
I300
tp6888
aF34.36
aa(lp6889
g2
a(I501
I80
tp6890
aF34.4
aa(lp6891
g5
a(I333
I302
tp6892
aF34.4
aa(lp6893
g8
a(I333
I85
tp6894
aF34.4
aa(lp6895
g115
a(I507
I299
tp6896
aF34.4
aa(lp6897
g2
a(I501
I80
tp6898
aF34.44
aa(lp6899
g5
a(I334
I302
tp6900
aF34.44
aa(lp6901
g8
a(I333
I85
tp6902
aF34.44
aa(lp6903
g115
a(I508
I300
tp6904
aF34.44
aa(lp6905
g2
a(I501
I80
tp6906
aF34.48
aa(lp6907
g5
a(I334
I302
tp6908
aF34.48
aa(lp6909
g8
a(I333
I85
tp6910
aF34.48
aa(lp6911
g115
a(I508
I300
tp6912
aF34.48
aa(lp6913
g2
a(I501
I80
tp6914
aF34.52
aa(lp6915
g5
a(I335
I302
tp6916
aF34.52
aa(lp6917
g8
a(I333
I85
tp6918
aF34.52
aa(lp6919
g115
a(I508
I300
tp6920
aF34.52
aa(lp6921
g2
a(I501
I80
tp6922
aF34.56
aa(lp6923
g5
a(I336
I302
tp6924
aF34.56
aa(lp6925
g8
a(I333
I85
tp6926
aF34.56
aa(lp6927
g115
a(I508
I300
tp6928
aF34.56
aa(lp6929
g2
a(I501
I80
tp6930
aF34.6
aa(lp6931
g5
a(I337
I302
tp6932
aF34.6
aa(lp6933
g8
a(I333
I85
tp6934
aF34.6
aa(lp6935
g115
a(I508
I300
tp6936
aF34.6
aa(lp6937
g2
a(I501
I80
tp6938
aF34.64
aa(lp6939
g5
a(I338
I302
tp6940
aF34.64
aa(lp6941
g8
a(I333
I85
tp6942
aF34.64
aa(lp6943
g115
a(I508
I300
tp6944
aF34.64
aa(lp6945
g2
a(I501
I80
tp6946
aF34.68
aa(lp6947
g5
a(I339
I302
tp6948
aF34.68
aa(lp6949
g8
a(I333
I85
tp6950
aF34.68
aa(lp6951
g115
a(I507
I299
tp6952
aF34.68
aa(lp6953
g2
a(I501
I80
tp6954
aF34.72
aa(lp6955
g5
a(I340
I302
tp6956
aF34.72
aa(lp6957
g8
a(I333
I85
tp6958
aF34.72
aa(lp6959
g115
a(I507
I300
tp6960
aF34.72
aa(lp6961
g2
a(I501
I80
tp6962
aF34.76
aa(lp6963
g5
a(I341
I302
tp6964
aF34.76
aa(lp6965
g8
a(I333
I85
tp6966
aF34.76
aa(lp6967
g115
a(I506
I300
tp6968
aF34.76
aa(lp6969
g2
a(I501
I80
tp6970
aF34.8
aa(lp6971
g5
a(I342
I302
tp6972
aF34.8
aa(lp6973
g8
a(I333
I85
tp6974
aF34.8
aa(lp6975
g115
a(I505
I299
tp6976
aF34.8
aa(lp6977
g2
a(I501
I80
tp6978
aF34.84
aa(lp6979
g5
a(I343
I302
tp6980
aF34.84
aa(lp6981
g8
a(I333
I85
tp6982
aF34.84
aa(lp6983
g115
a(I505
I300
tp6984
aF34.84
aa(lp6985
g2
a(I501
I80
tp6986
aF34.88
aa(lp6987
g5
a(I343
I302
tp6988
aF34.88
aa(lp6989
g8
a(I333
I85
tp6990
aF34.88
aa(lp6991
g115
a(I504
I299
tp6992
aF34.88
aa(lp6993
g2
a(I501
I80
tp6994
aF34.92
aa(lp6995
g5
a(I344
I302
tp6996
aF34.92
aa(lp6997
g8
a(I333
I85
tp6998
aF34.92
aa(lp6999
g115
a(I504
I300
tp7000
aF34.92
aa(lp7001
g2
a(I501
I80
tp7002
aF34.96
aa(lp7003
g5
a(I344
I302
tp7004
aF34.96
aa(lp7005
g8
a(I333
I85
tp7006
aF34.96
aa(lp7007
g115
a(I503
I299
tp7008
aF34.96
aa(lp7009
g2
a(I501
I80
tp7010
aF35.0
aa(lp7011
g5
a(I344
I302
tp7012
aF35.0
aa(lp7013
g8
a(I333
I85
tp7014
aF35.0
aa(lp7015
g115
a(I503
I299
tp7016
aF35.0
aa(lp7017
g2
a(I501
I80
tp7018
aF35.04
aa(lp7019
g5
a(I343
I302
tp7020
aF35.04
aa(lp7021
g8
a(I333
I85
tp7022
aF35.04
aa(lp7023
g115
a(I503
I300
tp7024
aF35.04
aa(lp7025
g2
a(I501
I80
tp7026
aF35.08
aa(lp7027
g5
a(I342
I302
tp7028
aF35.08
aa(lp7029
g8
a(I333
I85
tp7030
aF35.08
aa(lp7031
g115
a(I503
I300
tp7032
aF35.08
aa(lp7033
g2
a(I501
I80
tp7034
aF35.12
aa(lp7035
g5
a(I342
I302
tp7036
aF35.12
aa(lp7037
g8
a(I333
I85
tp7038
aF35.12
aa(lp7039
g115
a(I503
I300
tp7040
aF35.12
aa(lp7041
g2
a(I501
I80
tp7042
aF35.16
aa(lp7043
g5
a(I341
I302
tp7044
aF35.16
aa(lp7045
g8
a(I333
I85
tp7046
aF35.16
aa(lp7047
g115
a(I503
I299
tp7048
aF35.16
aa(lp7049
g2
a(I501
I80
tp7050
aF35.2
aa(lp7051
g5
a(I340
I302
tp7052
aF35.2
aa(lp7053
g8
a(I333
I85
tp7054
aF35.2
aa(lp7055
g115
a(I503
I299
tp7056
aF35.2
aa(lp7057
g2
a(I501
I80
tp7058
aF35.24
aa(lp7059
g5
a(I339
I302
tp7060
aF35.24
aa(lp7061
g8
a(I333
I85
tp7062
aF35.24
aa(lp7063
g115
a(I504
I300
tp7064
aF35.24
aa(lp7065
g2
a(I501
I80
tp7066
aF35.28
aa(lp7067
g5
a(I337
I302
tp7068
aF35.28
aa(lp7069
g8
a(I333
I85
tp7070
aF35.28
aa(lp7071
g115
a(I504
I299
tp7072
aF35.28
aa(lp7073
g2
a(I501
I80
tp7074
aF35.32
aa(lp7075
g5
a(I337
I302
tp7076
aF35.32
aa(lp7077
g8
a(I333
I85
tp7078
aF35.32
aa(lp7079
g115
a(I505
I299
tp7080
aF35.32
aa(lp7081
g2
a(I501
I79
tp7082
aF35.36
aa(lp7083
g5
a(I335
I302
tp7084
aF35.36
aa(lp7085
g8
a(I333
I85
tp7086
aF35.36
aa(lp7087
g115
a(I505
I299
tp7088
aF35.36
aa(lp7089
g2
a(I501
I80
tp7090
aF35.4
aa(lp7091
g5
a(I335
I302
tp7092
aF35.4
aa(lp7093
g8
a(I333
I85
tp7094
aF35.4
aa(lp7095
g115
a(I506
I299
tp7096
aF35.4
aa(lp7097
g2
a(I501
I80
tp7098
aF35.44
aa(lp7099
g5
a(I334
I302
tp7100
aF35.44
aa(lp7101
g8
a(I333
I85
tp7102
aF35.44
aa(lp7103
g115
a(I506
I299
tp7104
aF35.44
aa(lp7105
g2
a(I500
I80
tp7106
aF35.48
aa(lp7107
g5
a(I334
I302
tp7108
aF35.48
aa(lp7109
g8
a(I333
I85
tp7110
aF35.48
aa(lp7111
g115
a(I507
I300
tp7112
aF35.48
aa(lp7113
g2
a(I500
I80
tp7114
aF35.52
aa(lp7115
g5
a(I334
I302
tp7116
aF35.52
aa(lp7117
g8
a(I333
I85
tp7118
aF35.52
aa(lp7119
g115
a(I507
I299
tp7120
aF35.52
aa.