(lp0
(lp1
S'green'
p2
a(I124
I292
tp3
aF0.0
aa(lp4
g2
a(I125
I292
tp5
aF0.016683333333333335
aa(lp6
g2
a(I127
I292
tp7
aF0.03336666666666667
aa(lp8
g2
a(I129
I292
tp9
aF0.050050000000000004
aa(lp10
g2
a(I131
I292
tp11
aF0.06673333333333334
aa(lp12
g2
a(I133
I292
tp13
aF0.08341666666666667
aa(lp14
g2
a(I136
I292
tp15
aF0.10010000000000001
aa(lp16
g2
a(I139
I292
tp17
aF0.11678333333333334
aa(lp18
g2
a(I141
I292
tp19
aF0.13346666666666668
aa(lp20
g2
a(I145
I292
tp21
aF0.15015
aa(lp22
g2
a(I148
I292
tp23
aF0.16683333333333333
aa(lp24
g2
a(I151
I292
tp25
aF0.18351666666666666
aa(lp26
g2
a(I155
I292
tp27
aF0.20020000000000002
aa(lp28
g2
a(I158
I292
tp29
aF0.21688333333333334
aa(lp30
g2
a(I161
I292
tp31
aF0.23356666666666667
aa(lp32
g2
a(I165
I292
tp33
aF0.25025000000000003
aa(lp34
g2
a(I168
I292
tp35
aF0.26693333333333336
aa(lp36
g2
a(I171
I292
tp37
aF0.2836166666666667
aa(lp38
g2
a(I174
I291
tp39
aF0.3003
aa(lp40
g2
a(I176
I291
tp41
aF0.31698333333333334
aa(lp42
g2
a(I179
I291
tp43
aF0.33366666666666667
aa(lp44
g2
a(I181
I291
tp45
aF0.35035
aa(lp46
g2
a(I183
I291
tp47
aF0.3670333333333333
aa(lp48
g2
a(I185
I291
tp49
aF0.38371666666666665
aa(lp50
g2
a(I186
I290
tp51
aF0.40040000000000003
aa(lp52
g2
a(I187
I290
tp53
aF0.41708333333333336
aa(lp54
g2
a(I188
I290
tp55
aF0.4337666666666667
aa(lp56
g2
a(I189
I290
tp57
aF0.45045
aa(lp58
g2
a(I189
I290
tp59
aF0.46713333333333334
aa(lp60
g2
a(I189
I290
tp61
aF0.4838166666666667
aa(lp62
g2
a(I189
I290
tp63
aF0.5005000000000001
aa(lp64
g2
a(I188
I290
tp65
aF0.5171833333333333
aa(lp66
g2
a(I187
I291
tp67
aF0.5338666666666667
aa(lp68
g2
a(I185
I291
tp69
aF0.55055
aa(lp70
g2
a(I184
I291
tp71
aF0.5672333333333334
aa(lp72
g2
a(I182
I291
tp73
aF0.5839166666666666
aa(lp74
g2
a(I180
I292
tp75
aF0.6006
aa(lp76
g2
a(I177
I292
tp77
aF0.6172833333333333
aa(lp78
g2
a(I174
I292
tp79
aF0.6339666666666667
aa(lp80
g2
a(I172
I293
tp81
aF0.6506500000000001
aa(lp82
g2
a(I169
I293
tp83
aF0.6673333333333333
aa(lp84
g2
a(I166
I293
tp85
aF0.6840166666666667
aa(lp86
g2
a(I162
I293
tp87
aF0.7007
aa(lp88
g2
a(I159
I293
tp89
aF0.7173833333333334
aa(lp90
g2
a(I156
I293
tp91
aF0.7340666666666666
aa(lp92
g2
a(I153
I294
tp93
aF0.75075
aa(lp94
g2
a(I149
I294
tp95
aF0.7674333333333333
aa(lp96
g2
a(I146
I294
tp97
aF0.7841166666666667
aa(lp98
g2
a(I143
I294
tp99
aF0.8008000000000001
aa(lp100
g2
a(I140
I294
tp101
aF0.8174833333333333
aa(lp102
g2
a(I137
I293
tp103
aF0.8341666666666667
aa(lp104
g2
a(I134
I293
tp105
aF0.85085
aa(lp106
g2
a(I132
I293
tp107
aF0.8675333333333334
aa(lp108
g2
a(I130
I293
tp109
aF0.8842166666666667
aa(lp110
g2
a(I127
I292
tp111
aF0.9009
aa(lp112
g2
a(I126
I293
tp113
aF0.9175833333333333
aa(lp114
g2
a(I124
I292
tp115
aF0.9342666666666667
aa(lp116
g2
a(I123
I292
tp117
aF0.95095
aa(lp118
g2
a(I122
I292
tp119
aF0.9676333333333333
aa(lp120
g2
a(I122
I292
tp121
aF0.9843166666666667
aa(lp122
g2
a(I122
I292
tp123
aF1.0010000000000001
aa(lp124
S'yellow'
p125
a(I474
I288
tp126
aF1.0010000000000001
aa(lp127
g2
a(I122
I292
tp128
aF1.0176833333333333
aa(lp129
g125
a(I474
I288
tp130
aF1.0176833333333333
aa(lp131
g2
a(I122
I292
tp132
aF1.0343666666666667
aa(lp133
g125
a(I475
I288
tp134
aF1.0343666666666667
aa(lp135
g2
a(I123
I292
tp136
aF1.05105
aa(lp137
g125
a(I476
I288
tp138
aF1.05105
aa(lp139
g2
a(I124
I292
tp140
aF1.0677333333333334
aa(lp141
g125
a(I476
I288
tp142
aF1.0677333333333334
aa(lp143
g2
a(I125
I292
tp144
aF1.0844166666666666
aa(lp145
g125
a(I477
I288
tp146
aF1.0844166666666666
aa(lp147
g2
a(I127
I292
tp148
aF1.1011
aa(lp149
g125
a(I479
I288
tp150
aF1.1011
aa(lp151
g2
a(I129
I292
tp152
aF1.1177833333333334
aa(lp153
g125
a(I480
I288
tp154
aF1.1177833333333334
aa(lp155
g2
a(I131
I292
tp156
aF1.1344666666666667
aa(lp157
g125
a(I482
I288
tp158
aF1.1344666666666667
aa(lp159
g2
a(I133
I292
tp160
aF1.1511500000000001
aa(lp161
g2
a(I136
I292
tp162
aF1.1678333333333333
aa(lp163
g2
a(I139
I292
tp164
aF1.1845166666666667
aa(lp165
g2
a(I142
I292
tp166
aF1.2012
aa(lp167
g2
a(I145
I292
tp168
aF1.2178833333333334
aa(lp169
g2
a(I148
I292
tp170
aF1.2345666666666666
aa(lp171
g2
a(I151
I293
tp172
aF1.25125
aa(lp173
g2
a(I154
I292
tp174
aF1.2679333333333334
aa(lp175
g2
a(I158
I292
tp176
aF1.2846166666666667
aa(lp177
g2
a(I161
I292
tp178
aF1.3013000000000001
aa(lp179
g2
a(I164
I292
tp180
aF1.3179833333333333
aa(lp181
g2
a(I167
I292
tp182
aF1.3346666666666667
aa(lp183
g2
a(I170
I292
tp184
aF1.35135
aa(lp185
g2
a(I173
I292
tp186
aF1.3680333333333334
aa(lp187
g2
a(I176
I291
tp188
aF1.3847166666666666
aa(lp189
g2
a(I178
I291
tp190
aF1.4014
aa(lp191
g2
a(I181
I291
tp192
aF1.4180833333333334
aa(lp193
g2
a(I183
I291
tp194
aF1.4347666666666667
aa(lp195
g2
a(I184
I291
tp196
aF1.4514500000000001
aa(lp197
g2
a(I186
I291
tp198
aF1.4681333333333333
aa(lp199
g2
a(I187
I290
tp200
aF1.4848166666666667
aa(lp201
g2
a(I188
I290
tp202
aF1.5015
aa(lp203
g2
a(I188
I290
tp204
aF1.5181833333333334
aa(lp205
g2
a(I189
I290
tp206
aF1.5348666666666666
aa(lp207
g2
a(I189
I290
tp208
aF1.55155
aa(lp209
g2
a(I188
I290
tp210
aF1.5682333333333334
aa(lp211
g2
a(I188
I291
tp212
aF1.5849166666666668
aa(lp213
g2
a(I187
I291
tp214
aF1.6016000000000001
aa(lp215
g2
a(I185
I291
tp216
aF1.6182833333333333
aa(lp217
g2
a(I184
I291
tp218
aF1.6349666666666667
aa(lp219
g2
a(I182
I291
tp220
aF1.65165
aa(lp221
g2
a(I180
I292
tp222
aF1.6683333333333334
aa(lp223
g2
a(I177
I292
tp224
aF1.6850166666666666
aa(lp225
g2
a(I175
I292
tp226
aF1.7017
aa(lp227
g2
a(I172
I293
tp228
aF1.7183833333333334
aa(lp229
g2
a(I169
I293
tp230
aF1.7350666666666668
aa(lp231
g2
a(I166
I293
tp232
aF1.7517500000000001
aa(lp233
g2
a(I163
I293
tp234
aF1.7684333333333333
aa(lp235
g2
a(I159
I293
tp236
aF1.7851166666666667
aa(lp237
g2
a(I156
I293
tp238
aF1.8018
aa(lp239
g2
a(I153
I294
tp240
aF1.8184833333333335
aa(lp241
g2
a(I150
I293
tp242
aF1.8351666666666666
aa(lp243
g2
a(I147
I293
tp244
aF1.85185
aa(lp245
g2
a(I143
I293
tp246
aF1.8685333333333334
aa(lp247
g2
a(I140
I293
tp248
aF1.8852166666666668
aa(lp249
g2
a(I137
I293
tp250
aF1.9019
aa(lp251
g2
a(I135
I293
tp252
aF1.9185833333333333
aa(lp253
g2
a(I132
I293
tp254
aF1.9352666666666667
aa(lp255
g2
a(I130
I293
tp256
aF1.95195
aa(lp257
g2
a(I128
I293
tp258
aF1.9686333333333335
aa(lp259
g2
a(I126
I292
tp260
aF1.9853166666666666
aa(lp261
g125
a(I476
I287
tp262
aF1.9853166666666666
aa(lp263
g2
a(I125
I292
tp264
aF2.0020000000000002
aa(lp265
g125
a(I475
I287
tp266
aF2.0020000000000002
aa(lp267
g2
a(I124
I292
tp268
aF2.018683333333333
aa(lp269
g125
a(I474
I287
tp270
aF2.018683333333333
aa(lp271
g2
a(I123
I292
tp272
aF2.0353666666666665
aa(lp273
g125
a(I474
I287
tp274
aF2.0353666666666665
aa(lp275
g2
a(I122
I292
tp276
aF2.05205
aa(lp277
g125
a(I474
I287
tp278
aF2.05205
aa(lp279
g2
a(I122
I292
tp280
aF2.0687333333333333
aa(lp281
g125
a(I474
I287
tp282
aF2.0687333333333333
aa(lp283
g2
a(I122
I292
tp284
aF2.0854166666666667
aa(lp285
g125
a(I474
I287
tp286
aF2.0854166666666667
aa(lp287
g2
a(I122
I292
tp288
aF2.1021
aa(lp289
g125
a(I475
I287
tp290
aF2.1021
aa(lp291
g2
a(I123
I292
tp292
aF2.1187833333333335
aa(lp293
g125
a(I475
I288
tp294
aF2.1187833333333335
aa(lp295
g2
a(I124
I292
tp296
aF2.135466666666667
aa(lp297
g125
a(I476
I288
tp298
aF2.135466666666667
aa(lp299
g2
a(I125
I292
tp300
aF2.1521500000000002
aa(lp301
g125
a(I477
I288
tp302
aF2.1521500000000002
aa(lp303
g2
a(I127
I292
tp304
aF2.168833333333333
aa(lp305
g125
a(I478
I288
tp306
aF2.168833333333333
aa(lp307
g2
a(I129
I292
tp308
aF2.1855166666666666
aa(lp309
g125
a(I480
I288
tp310
aF2.1855166666666666
aa(lp311
g2
a(I131
I292
tp312
aF2.2022
aa(lp313
g125
a(I481
I288
tp314
aF2.2022
aa(lp315
g2
a(I133
I292
tp316
aF2.2188833333333333
aa(lp317
g125
a(I483
I288
tp318
aF2.2188833333333333
aa(lp319
g2
a(I136
I292
tp320
aF2.2355666666666667
aa(lp321
g125
a(I485
I288
tp322
aF2.2355666666666667
aa(lp323
g2
a(I139
I292
tp324
aF2.25225
aa(lp325
g125
a(I486
I288
tp326
aF2.25225
aa(lp327
g2
a(I141
I293
tp328
aF2.2689333333333335
aa(lp329
g2
a(I144
I293
tp330
aF2.285616666666667
aa(lp331
g2
a(I148
I293
tp332
aF2.3023000000000002
aa(lp333
g2
a(I151
I293
tp334
aF2.318983333333333
aa(lp335
g2
a(I154
I293
tp336
aF2.3356666666666666
aa(lp337
g2
a(I157
I292
tp338
aF2.35235
aa(lp339
g2
a(I161
I292
tp340
aF2.3690333333333333
aa(lp341
g2
a(I164
I292
tp342
aF2.3857166666666667
aa(lp343
g2
a(I167
I292
tp344
aF2.4024
aa(lp345
g2
a(I170
I292
tp346
aF2.4190833333333335
aa(lp347
g2
a(I173
I292
tp348
aF2.435766666666667
aa(lp349
g2
a(I175
I292
tp350
aF2.4524500000000002
aa(lp351
g2
a(I178
I291
tp352
aF2.469133333333333
aa(lp353
g2
a(I180
I291
tp354
aF2.4858166666666666
aa(lp355
g2
a(I182
I291
tp356
aF2.5025
aa(lp357
g2
a(I184
I291
tp358
aF2.5191833333333333
aa(lp359
g2
a(I186
I291
tp360
aF2.5358666666666667
aa(lp361
g2
a(I187
I290
tp362
aF2.55255
aa(lp363
g2
a(I188
I290
tp364
aF2.5692333333333335
aa(lp365
g2
a(I188
I290
tp366
aF2.585916666666667
aa(lp367
g2
a(I189
I290
tp368
aF2.6026000000000002
aa(lp369
g2
a(I188
I290
tp370
aF2.619283333333333
aa(lp371
g2
a(I188
I290
tp372
aF2.6359666666666666
aa(lp373
g2
a(I188
I291
tp374
aF2.65265
aa(lp375
g2
a(I187
I291
tp376
aF2.6693333333333333
aa(lp377
g2
a(I185
I291
tp378
aF2.6860166666666667
aa(lp379
g2
a(I184
I291
tp380
aF2.7027
aa(lp381
g2
a(I182
I291
tp382
aF2.7193833333333335
aa(lp383
g2
a(I180
I292
tp384
aF2.736066666666667
aa(lp385
g2
a(I177
I292
tp386
aF2.7527500000000003
aa(lp387
g2
a(I175
I292
tp388
aF2.769433333333333
aa(lp389
g2
a(I172
I292
tp390
aF2.7861166666666666
aa(lp391
g2
a(I169
I293
tp392
aF2.8028
aa(lp393
g2
a(I166
I293
tp394
aF2.8194833333333333
aa(lp395
g2
a(I163
I293
tp396
aF2.8361666666666667
aa(lp397
g2
a(I160
I293
tp398
aF2.85285
aa(lp399
g2
a(I157
I293
tp400
aF2.8695333333333335
aa(lp401
g2
a(I153
I293
tp402
aF2.886216666666667
aa(lp403
g2
a(I150
I293
tp404
aF2.9029000000000003
aa(lp405
g2
a(I147
I293
tp406
aF2.919583333333333
aa(lp407
g2
a(I144
I293
tp408
aF2.9362666666666666
aa(lp409
g2
a(I141
I293
tp410
aF2.95295
aa(lp411
g2
a(I138
I293
tp412
aF2.9696333333333333
aa(lp413
g2
a(I135
I293
tp414
aF2.9863166666666667
aa(lp415
g2
a(I133
I293
tp416
aF3.003
aa(lp417
g125
a(I479
I287
tp418
aF3.003
aa(lp419
g2
a(I130
I293
tp420
aF3.0196833333333335
aa(lp421
g125
a(I478
I287
tp422
aF3.0196833333333335
aa(lp423
g2
a(I128
I292
tp424
aF3.036366666666667
aa(lp425
g125
a(I477
I287
tp426
aF3.036366666666667
aa(lp427
g2
a(I127
I292
tp428
aF3.0530500000000003
aa(lp429
g125
a(I476
I287
tp430
aF3.0530500000000003
aa(lp431
g2
a(I125
I292
tp432
aF3.069733333333333
aa(lp433
g125
a(I475
I287
tp434
aF3.069733333333333
aa(lp435
g2
a(I124
I292
tp436
aF3.0864166666666666
aa(lp437
g125
a(I474
I287
tp438
aF3.0864166666666666
aa(lp439
g2
a(I123
I292
tp440
aF3.1031
aa(lp441
g125
a(I473
I287
tp442
aF3.1031
aa(lp443
g2
a(I122
I292
tp444
aF3.1197833333333334
aa(lp445
g125
a(I473
I287
tp446
aF3.1197833333333334
aa(lp447
g2
a(I122
I292
tp448
aF3.1364666666666667
aa(lp449
g125
a(I473
I287
tp450
aF3.1364666666666667
aa(lp451
g2
a(I122
I292
tp452
aF3.15315
aa(lp453
g125
a(I474
I287
tp454
aF3.15315
aa(lp455
g2
a(I122
I292
tp456
aF3.1698333333333335
aa(lp457
g125
a(I474
I287
tp458
aF3.1698333333333335
aa(lp459
g2
a(I123
I292
tp460
aF3.186516666666667
aa(lp461
g125
a(I474
I287
tp462
aF3.186516666666667
aa(lp463
g2
a(I124
I292
tp464
aF3.2032000000000003
aa(lp465
g125
a(I475
I287
tp466
aF3.2032000000000003
aa(lp467
g2
a(I125
I292
tp468
aF3.219883333333333
aa(lp469
g125
a(I476
I287
tp470
aF3.219883333333333
aa(lp471
g2
a(I127
I292
tp472
aF3.2365666666666666
aa(lp473
g125
a(I478
I287
tp474
aF3.2365666666666666
aa(lp475
g2
a(I129
I292
tp476
aF3.25325
aa(lp477
g125
a(I479
I287
tp478
aF3.25325
aa(lp479
g2
a(I131
I292
tp480
aF3.2699333333333334
aa(lp481
g125
a(I481
I287
tp482
aF3.2699333333333334
aa(lp483
g2
a(I133
I292
tp484
aF3.2866166666666667
aa(lp485
g125
a(I482
I288
tp486
aF3.2866166666666667
aa(lp487
g2
a(I136
I292
tp488
aF3.3033
aa(lp489
g125
a(I484
I288
tp490
aF3.3033
aa(lp491
g2
a(I138
I292
tp492
aF3.3199833333333335
aa(lp493
g125
a(I486
I288
tp494
aF3.3199833333333335
aa(lp495
g2
a(I141
I293
tp496
aF3.336666666666667
aa(lp497
g2
a(I144
I293
tp498
aF3.3533500000000003
aa(lp499
g2
a(I147
I293
tp500
aF3.370033333333333
aa(lp501
g2
a(I150
I293
tp502
aF3.3867166666666666
aa(lp503
g2
a(I154
I293
tp504
aF3.4034
aa(lp505
g2
a(I157
I293
tp506
aF3.4200833333333334
aa(lp507
g2
a(I160
I292
tp508
aF3.4367666666666667
aa(lp509
g2
a(I163
I292
tp510
aF3.45345
aa(lp511
g2
a(I167
I292
tp512
aF3.4701333333333335
aa(lp513
g2
a(I170
I292
tp514
aF3.486816666666667
aa(lp515
g2
a(I172
I292
tp516
aF3.5035000000000003
aa(lp517
g2
a(I175
I292
tp518
aF3.520183333333333
aa(lp519
g2
a(I178
I291
tp520
aF3.5368666666666666
aa(lp521
g2
a(I180
I291
tp522
aF3.55355
aa(lp523
g2
a(I182
I291
tp524
aF3.5702333333333334
aa(lp525
g2
a(I184
I291
tp526
aF3.5869166666666668
aa(lp527
g2
a(I185
I291
tp528
aF3.6036
aa(lp529
g2
a(I187
I290
tp530
aF3.6202833333333335
aa(lp531
g2
a(I187
I290
tp532
aF3.636966666666667
aa(lp533
g2
a(I188
I290
tp534
aF3.6536500000000003
aa(lp535
g2
a(I188
I290
tp536
aF3.6703333333333332
aa(lp537
g2
a(I188
I290
tp538
aF3.6870166666666666
aa(lp539
g2
a(I188
I290
tp540
aF3.7037
aa(lp541
g2
a(I187
I290
tp542
aF3.7203833333333334
aa(lp543
g2
a(I187
I291
tp544
aF3.7370666666666668
aa(lp545
g2
a(I185
I291
tp546
aF3.75375
aa(lp547
g2
a(I184
I291
tp548
aF3.7704333333333335
aa(lp549
g2
a(I182
I291
tp550
aF3.787116666666667
aa(lp551
g2
a(I180
I292
tp552
aF3.8038
aa(lp553
g2
a(I178
I292
tp554
aF3.8204833333333332
aa(lp555
g2
a(I175
I292
tp556
aF3.8371666666666666
aa(lp557
g2
a(I172
I292
tp558
aF3.85385
aa(lp559
g2
a(I169
I293
tp560
aF3.8705333333333334
aa(lp561
g2
a(I166
I293
tp562
aF3.8872166666666668
aa(lp563
g2
a(I163
I293
tp564
aF3.9039
aa(lp565
g2
a(I160
I293
tp566
aF3.9205833333333335
aa(lp567
g2
a(I157
I293
tp568
aF3.937266666666667
aa(lp569
g2
a(I153
I293
tp570
aF3.95395
aa(lp571
g2
a(I150
I293
tp572
aF3.9706333333333332
aa(lp573
g2
a(I147
I293
tp574
aF3.9873166666666666
aa(lp575
g2
a(I144
I293
tp576
aF4.0040000000000004
aa(lp577
g2
a(I141
I293
tp578
aF4.020683333333333
aa(lp579
g2
a(I138
I293
tp580
aF4.037366666666666
aa(lp581
g2
a(I136
I293
tp582
aF4.05405
aa(lp583
g2
a(I133
I293
tp584
aF4.070733333333333
aa(lp585
g2
a(I131
I293
tp586
aF4.087416666666667
aa(lp587
g125
a(I477
I287
tp588
aF4.087416666666667
aa(lp589
g2
a(I129
I292
tp590
aF4.1041
aa(lp591
g125
a(I476
I287
tp592
aF4.1041
aa(lp593
g2
a(I127
I292
tp594
aF4.120783333333334
aa(lp595
g125
a(I475
I287
tp596
aF4.120783333333334
aa(lp597
g2
a(I125
I292
tp598
aF4.137466666666667
aa(lp599
g125
a(I474
I287
tp600
aF4.137466666666667
aa(lp601
g2
a(I124
I292
tp602
aF4.1541500000000005
aa(lp603
g125
a(I474
I287
tp604
aF4.1541500000000005
aa(lp605
g2
a(I123
I292
tp606
aF4.170833333333333
aa(lp607
g125
a(I473
I287
tp608
aF4.170833333333333
aa(lp609
g2
a(I123
I292
tp610
aF4.187516666666666
aa(lp611
g125
a(I473
I287
tp612
aF4.187516666666666
aa(lp613
g2
a(I122
I292
tp614
aF4.2042
aa(lp615
g125
a(I473
I287
tp616
aF4.2042
aa(lp617
g2
a(I122
I292
tp618
aF4.220883333333333
aa(lp619
g125
a(I473
I287
tp620
aF4.220883333333333
aa(lp621
g2
a(I123
I292
tp622
aF4.237566666666667
aa(lp623
g125
a(I473
I287
tp624
aF4.237566666666667
aa(lp625
g2
a(I123
I292
tp626
aF4.25425
aa(lp627
g125
a(I474
I287
tp628
aF4.25425
aa(lp629
g2
a(I124
I292
tp630
aF4.270933333333334
aa(lp631
g125
a(I475
I287
tp632
aF4.270933333333334
aa(lp633
g2
a(I125
I292
tp634
aF4.287616666666667
aa(lp635
g125
a(I476
I287
tp636
aF4.287616666666667
aa(lp637
g2
a(I127
I292
tp638
aF4.3043000000000005
aa(lp639
g125
a(I477
I287
tp640
aF4.3043000000000005
aa(lp641
g2
a(I129
I292
tp642
aF4.320983333333333
aa(lp643
g125
a(I479
I287
tp644
aF4.320983333333333
aa(lp645
g2
a(I131
I292
tp646
aF4.337666666666666
aa(lp647
g125
a(I481
I287
tp648
aF4.337666666666666
aa(lp649
g2
a(I133
I292
tp650
aF4.35435
aa(lp651
g125
a(I483
I287
tp652
aF4.35435
aa(lp653
g2
a(I135
I293
tp654
aF4.371033333333333
aa(lp655
g2
a(I138
I293
tp656
aF4.387716666666667
aa(lp657
g2
a(I141
I293
tp658
aF4.4044
aa(lp659
g2
a(I144
I293
tp660
aF4.421083333333334
aa(lp661
g2
a(I147
I293
tp662
aF4.437766666666667
aa(lp663
g2
a(I150
I293
tp664
aF4.4544500000000005
aa(lp665
g2
a(I153
I293
tp666
aF4.471133333333333
aa(lp667
g2
a(I157
I293
tp668
aF4.487816666666666
aa(lp669
g2
a(I160
I293
tp670
aF4.5045
aa(lp671
g2
a(I163
I292
tp672
aF4.521183333333333
aa(lp673
g2
a(I166
I292
tp674
aF4.537866666666667
aa(lp675
g2
a(I169
I292
tp676
aF4.55455
aa(lp677
g2
a(I172
I292
tp678
aF4.571233333333334
aa(lp679
g2
a(I175
I292
tp680
aF4.587916666666667
aa(lp681
g2
a(I177
I291
tp682
aF4.6046000000000005
aa(lp683
g2
a(I180
I291
tp684
aF4.621283333333333
aa(lp685
g2
a(I182
I291
tp686
aF4.637966666666666
aa(lp687
g2
a(I184
I291
tp688
aF4.65465
aa(lp689
g2
a(I185
I291
tp690
aF4.671333333333333
aa(lp691
g2
a(I186
I290
tp692
aF4.688016666666667
aa(lp693
g2
a(I187
I290
tp694
aF4.7047
aa(lp695
g2
a(I188
I290
tp696
aF4.721383333333334
aa(lp697
g2
a(I188
I290
tp698
aF4.738066666666667
aa(lp699
g2
a(I188
I290
tp700
aF4.7547500000000005
aa(lp701
g2
a(I188
I290
tp702
aF4.771433333333333
aa(lp703
g2
a(I187
I290
tp704
aF4.788116666666666
aa(lp705
g2
a(I187
I291
tp706
aF4.8048
aa(lp707
g2
a(I185
I291
tp708
aF4.821483333333333
aa(lp709
g2
a(I184
I291
tp710
aF4.838166666666667
aa(lp711
g2
a(I182
I291
tp712
aF4.85485
aa(lp713
g2
a(I180
I291
tp714
aF4.871533333333334
aa(lp715
g2
a(I178
I292
tp716
aF4.888216666666667
aa(lp717
g2
a(I175
I292
tp718
aF4.9049000000000005
aa(lp719
g2
a(I172
I292
tp720
aF4.921583333333333
aa(lp721
g2
a(I170
I292
tp722
aF4.938266666666666
aa(lp723
g2
a(I167
I293
tp724
aF4.95495
aa(lp725
g2
a(I164
I293
tp726
aF4.971633333333333
aa(lp727
g2
a(I161
I293
tp728
aF4.988316666666667
aa(lp729
g2
a(I157
I293
tp730
aF5.005
aa(lp731
g2
a(I154
I293
tp732
aF5.021683333333334
aa(lp733
g2
a(I151
I293
tp734
aF5.038366666666667
aa(lp735
g2
a(I147
I293
tp736
aF5.0550500000000005
aa(lp737
g2
a(I144
I293
tp738
aF5.071733333333333
aa(lp739
g2
a(I141
I293
tp740
aF5.088416666666666
aa(lp741
g2
a(I138
I293
tp742
aF5.1051
aa(lp743
g2
a(I136
I293
tp744
aF5.121783333333333
aa(lp745
g2
a(I133
I293
tp746
aF5.138466666666667
aa(lp747
g2
a(I131
I293
tp748
aF5.15515
aa(lp749
g125
a(I477
I287
tp750
aF5.15515
aa(lp751
g2
a(I129
I293
tp752
aF5.171833333333334
aa(lp753
g125
a(I476
I287
tp754
aF5.171833333333334
aa(lp755
g2
a(I127
I292
tp756
aF5.188516666666667
aa(lp757
g125
a(I475
I287
tp758
aF5.188516666666667
aa(lp759
g2
a(I125
I292
tp760
aF5.2052000000000005
aa(lp761
g125
a(I474
I287
tp762
aF5.2052000000000005
aa(lp763
g2
a(I124
I292
tp764
aF5.221883333333333
aa(lp765
g125
a(I474
I287
tp766
aF5.221883333333333
aa(lp767
g2
a(I123
I292
tp768
aF5.238566666666666
aa(lp769
g125
a(I473
I287
tp770
aF5.238566666666666
aa(lp771
g2
a(I123
I292
tp772
aF5.25525
aa(lp773
g125
a(I473
I287
tp774
aF5.25525
aa(lp775
g2
a(I122
I292
tp776
aF5.271933333333333
aa(lp777
g125
a(I473
I287
tp778
aF5.271933333333333
aa(lp779
g2
a(I122
I292
tp780
aF5.288616666666667
aa(lp781
g125
a(I473
I287
tp782
aF5.288616666666667
aa(lp783
g2
a(I123
I292
tp784
aF5.3053
aa(lp785
g125
a(I473
I287
tp786
aF5.3053
aa(lp787
g2
a(I123
I292
tp788
aF5.321983333333334
aa(lp789
g125
a(I474
I287
tp790
aF5.321983333333334
aa(lp791
g2
a(I124
I292
tp792
aF5.338666666666667
aa(lp793
g125
a(I475
I287
tp794
aF5.338666666666667
aa(lp795
g2
a(I125
I292
tp796
aF5.3553500000000005
aa(lp797
g125
a(I476
I287
tp798
aF5.3553500000000005
aa(lp799
g2
a(I127
I292
tp800
aF5.372033333333333
aa(lp801
g125
a(I477
I287
tp802
aF5.372033333333333
aa(lp803
g2
a(I129
I292
tp804
aF5.388716666666666
aa(lp805
g125
a(I479
I287
tp806
aF5.388716666666666
aa(lp807
g2
a(I131
I292
tp808
aF5.4054
aa(lp809
g125
a(I481
I287
tp810
aF5.4054
aa(lp811
g2
a(I133
I292
tp812
aF5.422083333333333
aa(lp813
g125
a(I482
I287
tp814
aF5.422083333333333
aa(lp815
g2
a(I135
I293
tp816
aF5.438766666666667
aa(lp817
g2
a(I138
I293
tp818
aF5.45545
aa(lp819
g2
a(I141
I293
tp820
aF5.472133333333334
aa(lp821
g2
a(I144
I293
tp822
aF5.488816666666667
aa(lp823
g2
a(I147
I293
tp824
aF5.5055000000000005
aa(lp825
g2
a(I150
I293
tp826
aF5.522183333333333
aa(lp827
g2
a(I153
I293
tp828
aF5.538866666666666
aa(lp829
g2
a(I156
I293
tp830
aF5.55555
aa(lp831
g2
a(I160
I293
tp832
aF5.572233333333333
aa(lp833
g2
a(I163
I293
tp834
aF5.588916666666667
aa(lp835
g2
a(I166
I292
tp836
aF5.6056
aa(lp837
g2
a(I169
I292
tp838
aF5.622283333333334
aa(lp839
g2
a(I172
I292
tp840
aF5.638966666666667
aa(lp841
g2
a(I175
I292
tp842
aF5.6556500000000005
aa(lp843
g2
a(I177
I291
tp844
aF5.6723333333333334
aa(lp845
g2
a(I179
I291
tp846
aF5.689016666666666
aa(lp847
g2
a(I182
I291
tp848
aF5.7057
aa(lp849
g2
a(I183
I291
tp850
aF5.722383333333333
aa(lp851
g2
a(I185
I291
tp852
aF5.739066666666667
aa(lp853
g2
a(I186
I291
tp854
aF5.75575
aa(lp855
g2
a(I187
I290
tp856
aF5.772433333333334
aa(lp857
g2
a(I188
I290
tp858
aF5.789116666666667
aa(lp859
g2
a(I188
I290
tp860
aF5.8058000000000005
aa(lp861
g2
a(I188
I290
tp862
aF5.8224833333333335
aa(lp863
g2
a(I188
I290
tp864
aF5.839166666666666
aa(lp865
g2
a(I187
I290
tp866
aF5.85585
aa(lp867
g2
a(I187
I291
tp868
aF5.872533333333333
aa(lp869
g2
a(I185
I291
tp870
aF5.889216666666667
aa(lp871
g2
a(I184
I291
tp872
aF5.9059
aa(lp873
g2
a(I182
I291
tp874
aF5.922583333333334
aa(lp875
g2
a(I180
I291
tp876
aF5.939266666666667
aa(lp877
g2
a(I178
I292
tp878
aF5.9559500000000005
aa(lp879
g2
a(I175
I292
tp880
aF5.9726333333333335
aa(lp881
g2
a(I173
I292
tp882
aF5.989316666666666
aa(lp883
g2
a(I170
I292
tp884
aF6.006
aa(lp885
g2
a(I167
I293
tp886
aF6.022683333333333
aa(lp887
g2
a(I164
I293
tp888
aF6.039366666666667
aa(lp889
g2
a(I161
I293
tp890
aF6.05605
aa(lp891
g2
a(I158
I293
tp892
aF6.072733333333334
aa(lp893
g2
a(I154
I293
tp894
aF6.089416666666667
aa(lp895
g2
a(I151
I293
tp896
aF6.1061000000000005
aa(lp897
g2
a(I148
I293
tp898
aF6.1227833333333335
aa(lp899
g2
a(I145
I293
tp900
aF6.139466666666666
aa(lp901
g2
a(I142
I293
tp902
aF6.15615
aa(lp903
g2
a(I139
I293
tp904
aF6.172833333333333
aa(lp905
g2
a(I136
I293
tp906
aF6.189516666666667
aa(lp907
g2
a(I134
I293
tp908
aF6.2062
aa(lp909
g2
a(I131
I293
tp910
aF6.222883333333334
aa(lp911
g125
a(I477
I287
tp912
aF6.222883333333334
aa(lp913
g2
a(I129
I292
tp914
aF6.239566666666667
aa(lp915
g125
a(I476
I287
tp916
aF6.239566666666667
aa(lp917
g2
a(I127
I292
tp918
aF6.2562500000000005
aa(lp919
g125
a(I475
I287
tp920
aF6.2562500000000005
aa(lp921
g2
a(I126
I292
tp922
aF6.2729333333333335
aa(lp923
g125
a(I474
I287
tp924
aF6.2729333333333335
aa(lp925
g2
a(I124
I292
tp926
aF6.289616666666666
aa(lp927
g125
a(I473
I287
tp928
aF6.289616666666666
aa(lp929
g2
a(I124
I292
tp930
aF6.3063
aa(lp931
g125
a(I473
I287
tp932
aF6.3063
aa(lp933
g2
a(I123
I292
tp934
aF6.322983333333333
aa(lp935
g125
a(I473
I287
tp936
aF6.322983333333333
aa(lp937
g2
a(I123
I292
tp938
aF6.339666666666667
aa(lp939
g125
a(I472
I287
tp940
aF6.339666666666667
aa(lp941
g2
a(I122
I292
tp942
aF6.35635
aa(lp943
g125
a(I473
I287
tp944
aF6.35635
aa(lp945
g2
a(I123
I292
tp946
aF6.373033333333334
aa(lp947
g125
a(I473
I287
tp948
aF6.373033333333334
aa(lp949
g2
a(I123
I292
tp950
aF6.389716666666667
aa(lp951
g125
a(I474
I287
tp952
aF6.389716666666667
aa(lp953
g2
a(I124
I292
tp954
aF6.4064000000000005
aa(lp955
g125
a(I475
I287
tp956
aF6.4064000000000005
aa(lp957
g2
a(I125
I292
tp958
aF6.4230833333333335
aa(lp959
g125
a(I476
I287
tp960
aF6.4230833333333335
aa(lp961
g2
a(I127
I292
tp962
aF6.439766666666666
aa(lp963
g125
a(I477
I287
tp964
aF6.439766666666666
aa(lp965
g2
a(I128
I292
tp966
aF6.45645
aa(lp967
g125
a(I478
I287
tp968
aF6.45645
aa(lp969
g2
a(I130
I292
tp970
aF6.473133333333333
aa(lp971
g125
a(I480
I287
tp972
aF6.473133333333333
aa(lp973
g2
a(I133
I292
tp974
aF6.489816666666667
aa(lp975
g125
a(I482
I287
tp976
aF6.489816666666667
aa(lp977
g2
a(I135
I293
tp978
aF6.5065
aa(lp979
g2
a(I138
I293
tp980
aF6.523183333333334
aa(lp981
g2
a(I141
I293
tp982
aF6.539866666666667
aa(lp983
g2
a(I144
I293
tp984
aF6.5565500000000005
aa(lp985
g2
a(I147
I293
tp986
aF6.5732333333333335
aa(lp987
g2
a(I150
I293
tp988
aF6.589916666666666
aa(lp989
g2
a(I153
I293
tp990
aF6.6066
aa(lp991
g2
a(I156
I293
tp992
aF6.623283333333333
aa(lp993
g2
a(I159
I293
tp994
aF6.639966666666667
aa(lp995
g2
a(I163
I293
tp996
aF6.65665
aa(lp997
g2
a(I166
I292
tp998
aF6.673333333333334
aa(lp999
g2
a(I169
I292
tp1000
aF6.690016666666667
aa(lp1001
g2
a(I172
I292
tp1002
aF6.7067000000000005
aa(lp1003
g2
a(I174
I292
tp1004
aF6.7233833333333335
aa(lp1005
g2
a(I177
I292
tp1006
aF6.740066666666666
aa(lp1007
g2
a(I179
I291
tp1008
aF6.75675
aa(lp1009
g2
a(I181
I291
tp1010
aF6.773433333333333
aa(lp1011
g2
a(I183
I291
tp1012
aF6.790116666666667
aa(lp1013
g2
a(I185
I291
tp1014
aF6.8068
aa(lp1015
g2
a(I186
I291
tp1016
aF6.823483333333334
aa(lp1017
g2
a(I187
I290
tp1018
aF6.840166666666667
aa(lp1019
g2
a(I188
I290
tp1020
aF6.8568500000000006
aa(lp1021
g2
a(I188
I290
tp1022
aF6.8735333333333335
aa(lp1023
g2
a(I188
I290
tp1024
aF6.890216666666666
aa(lp1025
g2
a(I188
I290
tp1026
aF6.9069
aa(lp1027
g2
a(I187
I290
tp1028
aF6.923583333333333
aa(lp1029
g2
a(I187
I290
tp1030
aF6.940266666666667
aa(lp1031
g2
a(I185
I291
tp1032
aF6.95695
aa(lp1033
g2
a(I184
I291
tp1034
aF6.973633333333334
aa(lp1035
g2
a(I182
I291
tp1036
aF6.990316666666667
aa(lp1037
g2
a(I180
I291
tp1038
aF7.007000000000001
aa(lp1039
g2
a(I178
I291
tp1040
aF7.0236833333333335
aa(lp1041
g2
a(I176
I292
tp1042
aF7.040366666666666
aa(lp1043
g2
a(I173
I292
tp1044
aF7.05705
aa(lp1045
g2
a(I170
I292
tp1046
aF7.073733333333333
aa(lp1047
g2
a(I167
I292
tp1048
aF7.090416666666667
aa(lp1049
g2
a(I164
I293
tp1050
aF7.1071
aa(lp1051
g2
a(I161
I293
tp1052
aF7.123783333333334
aa(lp1053
g2
a(I158
I293
tp1054
aF7.140466666666667
aa(lp1055
g2
a(I155
I293
tp1056
aF7.157150000000001
aa(lp1057
g2
a(I151
I293
tp1058
aF7.1738333333333335
aa(lp1059
g2
a(I148
I293
tp1060
aF7.1905166666666664
aa(lp1061
g2
a(I145
I293
tp1062
aF7.2072
aa(lp1063
g2
a(I142
I293
tp1064
aF7.223883333333333
aa(lp1065
g2
a(I139
I293
tp1066
aF7.240566666666667
aa(lp1067
g2
a(I136
I293
tp1068
aF7.25725
aa(lp1069
g125
a(I480
I287
tp1070
aF7.25725
aa(lp1071
g2
a(I134
I293
tp1072
aF7.273933333333334
aa(lp1073
g2
a(I131
I293
tp1074
aF7.290616666666667
aa(lp1075
g125
a(I477
I287
tp1076
aF7.290616666666667
aa(lp1077
g2
a(I129
I292
tp1078
aF7.307300000000001
aa(lp1079
g125
a(I476
I287
tp1080
aF7.307300000000001
aa(lp1081
g2
a(I128
I292
tp1082
aF7.3239833333333335
aa(lp1083
g125
a(I475
I287
tp1084
aF7.3239833333333335
aa(lp1085
g2
a(I126
I292
tp1086
aF7.3406666666666665
aa(lp1087
g125
a(I474
I287
tp1088
aF7.3406666666666665
aa(lp1089
g2
a(I125
I292
tp1090
aF7.35735
aa(lp1091
g125
a(I473
I287
tp1092
aF7.35735
aa(lp1093
g2
a(I124
I292
tp1094
aF7.374033333333333
aa(lp1095
g125
a(I474
I286
tp1096
aF7.374033333333333
aa(lp1097
g2
a(I123
I292
tp1098
aF7.390716666666667
aa(lp1099
g125
a(I473
I287
tp1100
aF7.390716666666667
aa(lp1101
g2
a(I123
I292
tp1102
aF7.4074
aa(lp1103
g125
a(I473
I287
tp1104
aF7.4074
aa(lp1105
g2
a(I123
I292
tp1106
aF7.424083333333334
aa(lp1107
g125
a(I473
I286
tp1108
aF7.424083333333334
aa(lp1109
g2
a(I123
I292
tp1110
aF7.440766666666667
aa(lp1111
g125
a(I473
I287
tp1112
aF7.440766666666667
aa(lp1113
g2
a(I123
I292
tp1114
aF7.45745
aa(lp1115
g2
a(I124
I292
tp1116
aF7.4741333333333335
aa(lp1117
g125
a(I474
I287
tp1118
aF7.4741333333333335
aa(lp1119
g2
a(I125
I292
tp1120
aF7.4908166666666665
aa(lp1121
g125
a(I475
I287
tp1122
aF7.4908166666666665
aa(lp1123
g2
a(I127
I292
tp1124
aF7.5075
aa(lp1125
g2
a(I128
I292
tp1126
aF7.524183333333333
aa(lp1127
g125
a(I478
I287
tp1128
aF7.524183333333333
aa(lp1129
g2
a(I130
I293
tp1130
aF7.540866666666667
aa(lp1131
g2
a(I133
I293
tp1132
aF7.55755
aa(lp1133
g125
a(I481
I287
tp1134
aF7.55755
aa(lp1135
g2
a(I135
I293
tp1136
aF7.574233333333334
aa(lp1137
g125
a(I483
I287
tp1138
aF7.574233333333334
aa(lp1139
g2
a(I138
I293
tp1140
aF7.590916666666667
aa(lp1141
g125
a(I485
I287
tp1142
aF7.590916666666667
aa(lp1143
g2
a(I140
I293
tp1144
aF7.6076
aa(lp1145
g2
a(I143
I293
tp1146
aF7.6242833333333335
aa(lp1147
g2
a(I146
I293
tp1148
aF7.6409666666666665
aa(lp1149
g2
a(I149
I293
tp1150
aF7.65765
aa(lp1151
g2
a(I153
I293
tp1152
aF7.674333333333333
aa(lp1153
g2
a(I156
I293
tp1154
aF7.691016666666667
aa(lp1155
g2
a(I159
I293
tp1156
aF7.7077
aa(lp1157
g2
a(I162
I293
tp1158
aF7.724383333333334
aa(lp1159
g2
a(I165
I292
tp1160
aF7.741066666666667
aa(lp1161
g2
a(I168
I292
tp1162
aF7.75775
aa(lp1163
g2
a(I171
I292
tp1164
aF7.7744333333333335
aa(lp1165
g2
a(I174
I292
tp1166
aF7.7911166666666665
aa(lp1167
g2
a(I176
I292
tp1168
aF7.8078
aa(lp1169
g2
a(I179
I291
tp1170
aF7.824483333333333
aa(lp1171
g2
a(I181
I291
tp1172
aF7.841166666666667
aa(lp1173
g2
a(I183
I291
tp1174
aF7.85785
aa(lp1175
g2
a(I184
I291
tp1176
aF7.874533333333334
aa(lp1177
g2
a(I186
I291
tp1178
aF7.891216666666667
aa(lp1179
g2
a(I187
I290
tp1180
aF7.9079
aa(lp1181
g2
a(I187
I290
tp1182
aF7.9245833333333335
aa(lp1183
g2
a(I188
I290
tp1184
aF7.9412666666666665
aa(lp1185
g2
a(I188
I290
tp1186
aF7.95795
aa(lp1187
g2
a(I188
I290
tp1188
aF7.974633333333333
aa(lp1189
g2
a(I187
I290
tp1190
aF7.991316666666667
aa(lp1191
g2
a(I186
I290
tp1192
aF8.008000000000001
aa(lp1193
g2
a(I185
I291
tp1194
aF8.024683333333334
aa(lp1195
g2
a(I184
I291
tp1196
aF8.041366666666667
aa(lp1197
g2
a(I182
I291
tp1198
aF8.05805
aa(lp1199
g2
a(I180
I291
tp1200
aF8.074733333333333
aa(lp1201
g2
a(I178
I291
tp1202
aF8.091416666666667
aa(lp1203
g2
a(I176
I292
tp1204
aF8.1081
aa(lp1205
g2
a(I173
I292
tp1206
aF8.124783333333333
aa(lp1207
g2
a(I170
I292
tp1208
aF8.141466666666666
aa(lp1209
g2
a(I167
I292
tp1210
aF8.158150000000001
aa(lp1211
g2
a(I164
I292
tp1212
aF8.174833333333334
aa(lp1213
g2
a(I161
I293
tp1214
aF8.191516666666667
aa(lp1215
g2
a(I158
I293
tp1216
aF8.2082
aa(lp1217
g2
a(I155
I293
tp1218
aF8.224883333333333
aa(lp1219
g2
a(I152
I293
tp1220
aF8.241566666666667
aa(lp1221
g2
a(I148
I293
tp1222
aF8.25825
aa(lp1223
g2
a(I145
I293
tp1224
aF8.274933333333333
aa(lp1225
g2
a(I142
I293
tp1226
aF8.291616666666666
aa(lp1227
g2
a(I140
I293
tp1228
aF8.308300000000001
aa(lp1229
g2
a(I137
I293
tp1230
aF8.324983333333334
aa(lp1231
g2
a(I134
I293
tp1232
aF8.341666666666667
aa(lp1233
g2
a(I132
I293
tp1234
aF8.35835
aa(lp1235
g125
a(I477
I287
tp1236
aF8.35835
aa(lp1237
g2
a(I130
I292
tp1238
aF8.375033333333333
aa(lp1239
g2
a(I128
I292
tp1240
aF8.391716666666667
aa(lp1241
g125
a(I476
I286
tp1242
aF8.391716666666667
aa(lp1243
g2
a(I126
I292
tp1244
aF8.4084
aa(lp1245
g125
a(I475
I286
tp1246
aF8.4084
aa(lp1247
g2
a(I125
I292
tp1248
aF8.425083333333333
aa(lp1249
g125
a(I473
I286
tp1250
aF8.425083333333333
aa(lp1251
g2
a(I124
I292
tp1252
aF8.441766666666666
aa(lp1253
g125
a(I473
I286
tp1254
aF8.441766666666666
aa(lp1255
g2
a(I123
I292
tp1256
aF8.458450000000001
aa(lp1257
g125
a(I472
I286
tp1258
aF8.458450000000001
aa(lp1259
g2
a(I123
I292
tp1260
aF8.475133333333334
aa(lp1261
g125
a(I472
I286
tp1262
aF8.475133333333334
aa(lp1263
g2
a(I123
I292
tp1264
aF8.491816666666667
aa(lp1265
g125
a(I473
I286
tp1266
aF8.491816666666667
aa(lp1267
g2
a(I123
I292
tp1268
aF8.5085
aa(lp1269
g125
a(I474
I286
tp1270
aF8.5085
aa(lp1271
g2
a(I123
I292
tp1272
aF8.525183333333333
aa(lp1273
g125
a(I475
I286
tp1274
aF8.525183333333333
aa(lp1275
g2
a(I124
I292
tp1276
aF8.541866666666667
aa(lp1277
g2
a(I125
I292
tp1278
aF8.55855
aa(lp1279
g2
a(I127
I292
tp1280
aF8.575233333333333
aa(lp1281
g2
a(I128
I292
tp1282
aF8.591916666666666
aa(lp1283
g125
a(I478
I287
tp1284
aF8.591916666666666
aa(lp1285
g2
a(I130
I292
tp1286
aF8.608600000000001
aa(lp1287
g2
a(I132
I293
tp1288
aF8.625283333333334
aa(lp1289
g2
a(I135
I293
tp1290
aF8.641966666666667
aa(lp1291
g2
a(I137
I293
tp1292
aF8.65865
aa(lp1293
g2
a(I140
I293
tp1294
aF8.675333333333333
aa(lp1295
g2
a(I143
I293
tp1296
aF8.692016666666667
aa(lp1297
g2
a(I146
I293
tp1298
aF8.7087
aa(lp1299
g2
a(I149
I293
tp1300
aF8.725383333333333
aa(lp1301
g2
a(I152
I293
tp1302
aF8.742066666666666
aa(lp1303
g2
a(I156
I293
tp1304
aF8.758750000000001
aa(lp1305
g2
a(I159
I293
tp1306
aF8.775433333333334
aa(lp1307
g2
a(I162
I293
tp1308
aF8.792116666666667
aa(lp1309
g2
a(I165
I293
tp1310
aF8.8088
aa(lp1311
g2
a(I168
I292
tp1312
aF8.825483333333333
aa(lp1313
g2
a(I171
I292
tp1314
aF8.842166666666667
aa(lp1315
g2
a(I174
I292
tp1316
aF8.85885
aa(lp1317
g2
a(I176
I292
tp1318
aF8.875533333333333
aa(lp1319
g2
a(I179
I291
tp1320
aF8.892216666666666
aa(lp1321
g2
a(I181
I291
tp1322
aF8.908900000000001
aa(lp1323
g2
a(I183
I291
tp1324
aF8.925583333333334
aa(lp1325
g2
a(I184
I291
tp1326
aF8.942266666666667
aa(lp1327
g2
a(I185
I291
tp1328
aF8.95895
aa(lp1329
g2
a(I186
I290
tp1330
aF8.975633333333333
aa(lp1331
g2
a(I187
I290
tp1332
aF8.992316666666667
aa(lp1333
g2
a(I188
I290
tp1334
aF9.009
aa(lp1335
g2
a(I188
I290
tp1336
aF9.025683333333333
aa(lp1337
g2
a(I188
I290
tp1338
aF9.042366666666666
aa(lp1339
g2
a(I187
I290
tp1340
aF9.059050000000001
aa(lp1341
g2
a(I186
I290
tp1342
aF9.075733333333334
aa(lp1343
g2
a(I185
I290
tp1344
aF9.092416666666667
aa(lp1345
g2
a(I184
I291
tp1346
aF9.1091
aa(lp1347
g2
a(I182
I291
tp1348
aF9.125783333333333
aa(lp1349
g2
a(I180
I291
tp1350
aF9.142466666666667
aa(lp1351
g2
a(I178
I291
tp1352
aF9.15915
aa(lp1353
g2
a(I176
I292
tp1354
aF9.175833333333333
aa(lp1355
g2
a(I173
I292
tp1356
aF9.192516666666666
aa(lp1357
g2
a(I170
I292
tp1358
aF9.209200000000001
aa(lp1359
g2
a(I167
I292
tp1360
aF9.225883333333334
aa(lp1361
g2
a(I164
I293
tp1362
aF9.242566666666667
aa(lp1363
g2
a(I161
I293
tp1364
aF9.25925
aa(lp1365
g2
a(I158
I293
tp1366
aF9.275933333333333
aa(lp1367
g2
a(I155
I293
tp1368
aF9.292616666666667
aa(lp1369
g2
a(I152
I293
tp1370
aF9.3093
aa(lp1371
g2
a(I149
I293
tp1372
aF9.325983333333333
aa(lp1373
g2
a(I146
I293
tp1374
aF9.342666666666666
aa(lp1375
g2
a(I143
I293
tp1376
aF9.359350000000001
aa(lp1377
g2
a(I140
I293
tp1378
aF9.376033333333334
aa(lp1379
g2
a(I137
I293
tp1380
aF9.392716666666667
aa(lp1381
g2
a(I134
I293
tp1382
aF9.4094
aa(lp1383
g2
a(I132
I293
tp1384
aF9.426083333333333
aa(lp1385
g2
a(I130
I293
tp1386
aF9.442766666666667
aa(lp1387
g2
a(I128
I292
tp1388
aF9.45945
aa(lp1389
g2
a(I126
I292
tp1390
aF9.476133333333333
aa(lp1391
g2
a(I125
I292
tp1392
aF9.492816666666666
aa(lp1393
g2
a(I124
I292
tp1394
aF9.509500000000001
aa(lp1395
g2
a(I123
I292
tp1396
aF9.526183333333334
aa(lp1397
g2
a(I123
I292
tp1398
aF9.542866666666667
aa(lp1399
g2
a(I123
I292
tp1400
aF9.55955
aa(lp1401
g2
a(I123
I292
tp1402
aF9.576233333333333
aa(lp1403
g2
a(I123
I292
tp1404
aF9.592916666666667
aa(lp1405
g2
a(I124
I292
tp1406
aF9.6096
aa(lp1407
g2
a(I125
I292
tp1408
aF9.626283333333333
aa(lp1409
g2
a(I127
I292
tp1410
aF9.642966666666666
aa(lp1411
g2
a(I128
I292
tp1412
aF9.659650000000001
aa(lp1413
g2
a(I130
I292
tp1414
aF9.676333333333334
aa(lp1415
g2
a(I132
I293
tp1416
aF9.693016666666667
aa(lp1417
g2
a(I135
I293
tp1418
aF9.7097
aa(lp1419
g2
a(I137
I293
tp1420
aF9.726383333333333
aa(lp1421
g2
a(I140
I293
tp1422
aF9.743066666666667
aa(lp1423
g2
a(I143
I293
tp1424
aF9.75975
aa(lp1425
g2
a(I146
I293
tp1426
aF9.776433333333333
aa(lp1427
g2
a(I149
I293
tp1428
aF9.793116666666666
aa(lp1429
g2
a(I152
I293
tp1430
aF9.809800000000001
aa(lp1431
g2
a(I155
I293
tp1432
aF9.826483333333334
aa(lp1433
g2
a(I158
I293
tp1434
aF9.843166666666667
aa(lp1435
g2
a(I162
I293
tp1436
aF9.85985
aa(lp1437
g2
a(I165
I292
tp1438
aF9.876533333333333
aa(lp1439
g2
a(I168
I292
tp1440
aF9.893216666666667
aa(lp1441
g2
a(I171
I292
tp1442
aF9.9099
aa(lp1443
g2
a(I174
I292
tp1444
aF9.926583333333333
aa(lp1445
g2
a(I176
I292
tp1446
aF9.943266666666666
aa(lp1447
g2
a(I179
I291
tp1448
aF9.959950000000001
aa(lp1449
g2
a(I181
I291
tp1450
aF9.976633333333334
aa(lp1451
g2
a(I183
I291
tp1452
aF9.993316666666667
aa(lp1453
g2
a(I186
I291
tp1454
aF10.01
aa(lp1455
g2
a(I187
I291
tp1456
aF10.026683333333333
aa(lp1457
g2
a(I189
I290
tp1458
aF10.043366666666667
aa(lp1459
g2
a(I190
I290
tp1460
aF10.06005
aa(lp1461
g2
a(I192
I291
tp1462
aF10.076733333333333
aa(lp1463
g2
a(I192
I291
tp1464
aF10.093416666666666
aa(lp1465
g2
a(I193
I291
tp1466
aF10.110100000000001
aa(lp1467
g2
a(I192
I291
tp1468
aF10.126783333333334
aa(lp1469
g2
a(I191
I291
tp1470
aF10.143466666666667
aa(lp1471
g2
a(I190
I292
tp1472
aF10.16015
aa(lp1473
S'red'
p1474
a(I151
I2
tp1475
aF10.16015
aa(lp1476
g2
a(I189
I292
tp1477
aF10.176833333333333
aa(lp1478
g1474
a(I151
I2
tp1479
aF10.176833333333333
aa(lp1480
g2
a(I187
I292
tp1481
aF10.193516666666667
aa(lp1482
g1474
a(I150
I2
tp1483
aF10.193516666666667
aa(lp1484
g2
a(I185
I292
tp1485
aF10.2102
aa(lp1486
g1474
a(I151
I2
tp1487
aF10.2102
aa(lp1488
g2
a(I183
I292
tp1489
aF10.226883333333333
aa(lp1490
g2
a(I180
I292
tp1491
aF10.243566666666666
aa.